
AT91SAM7SEK_HID_KEYBOARD.elf:     file format elf32-littlearm

Sections:
Idx Name          Size      VMA       LMA       File off  Algn
  0 .text         00004b48  00100000  00100000  00008000  2**3
                  CONTENTS, ALLOC, LOAD, READONLY, CODE
  1 .data         00000954  00200000  00104b48  00010000  2**3
                  CONTENTS, ALLOC, LOAD, DATA
  2 .bss          000000fc  00200954  0010549c  00010954  2**2
                  ALLOC
  3 .ARM.attributes 0000002e  00000000  00000000  00010954  2**0
                  CONTENTS, READONLY
  4 .comment      00000011  00000000  00000000  00010982  2**0
                  CONTENTS, READONLY
  5 .debug_aranges 000003e0  00000000  00000000  00010998  2**3
                  CONTENTS, READONLY, DEBUGGING
  6 .debug_info   00010d7a  00000000  00000000  00010d78  2**0
                  CONTENTS, READONLY, DEBUGGING
  7 .debug_abbrev 00003033  00000000  00000000  00021af2  2**0
                  CONTENTS, READONLY, DEBUGGING
  8 .debug_line   0000392c  00000000  00000000  00024b25  2**0
                  CONTENTS, READONLY, DEBUGGING
  9 .debug_frame  00000920  00000000  00000000  00028454  2**2
                  CONTENTS, READONLY, DEBUGGING
 10 .debug_str    0000161a  00000000  00000000  00028d74  2**0
                  CONTENTS, READONLY, DEBUGGING
 11 .debug_loc    00005965  00000000  00000000  0002a38e  2**0
                  CONTENTS, READONLY, DEBUGGING
 12 .debug_ranges 00000318  00000000  00000000  0002fcf3  2**0
                  CONTENTS, READONLY, DEBUGGING

Disassembly of section .text:

00100000 <__ENTRY>:
  100000:	ea000006 	b	100020 <Reset>

00100004 <undefvec>:
  100004:	eafffffe 	b	100004 <undefvec>

00100008 <swivec>:
  100008:	eafffffe 	b	100008 <swivec>

0010000c <pabtvec>:
  10000c:	eafffffe 	b	10000c <pabtvec>

00100010 <dabtvec>:
  100010:	eafffffe 	b	100010 <dabtvec>

00100014 <rsvdvec>:
  100014:	eafffffe 	b	100014 <rsvdvec>

00100018 <irqvec>:
  100018:	ea00002e 	b	1000d8 <IRQ_Handler>

0010001c <fiqvec>:
  10001c:	eafffffe 	b	10001c <fiqvec>

00100020 <Reset>:
  100020:	e3a01602 	mov	r1, #2097152	; 0x200000
  100024:	e2811801 	add	r1, r1, #65536	; 0x10000
  100028:	e321f0d2 	msr	CPSR_c, #210	; 0xd2
  10002c:	e1a0d001 	mov	sp, r1
  100030:	e2411060 	sub	r1, r1, #96	; 0x60
  100034:	e321f0d1 	msr	CPSR_c, #209	; 0xd1
  100038:	e1a0d001 	mov	sp, r1
  10003c:	e2411004 	sub	r1, r1, #4
  100040:	e321f0d7 	msr	CPSR_c, #215	; 0xd7
  100044:	e1a0d001 	mov	sp, r1
  100048:	e2411004 	sub	r1, r1, #4
  10004c:	e321f0db 	msr	CPSR_c, #219	; 0xdb
  100050:	e1a0d001 	mov	sp, r1
  100054:	e2411004 	sub	r1, r1, #4
  100058:	e321f0df 	msr	CPSR_c, #223	; 0xdf
  10005c:	e1a0d001 	mov	sp, r1
  100060:	e2411b01 	sub	r1, r1, #1024	; 0x400
  100064:	e321f053 	msr	CPSR_c, #83	; 0x53
  100068:	e1a0d001 	mov	sp, r1
  10006c:	e2411b02 	sub	r1, r1, #2048	; 0x800
  100070:	e59f00a8 	ldr	r0, [pc, #168]	; 100120 <IRQ_Handler+0x48>
  100074:	e1a0e00f 	mov	lr, pc
  100078:	e12fff10 	bx	r0
  10007c:	e28f0014 	add	r0, pc, #20
  100080:	e890000e 	ldm	r0, {r1, r2, r3}

00100084 <RW_loop>:
  100084:	e1520003 	cmp	r2, r3
  100088:	14910004 	ldrne	r0, [r1], #4
  10008c:	14820004 	strne	r0, [r2], #4
  100090:	1afffffb 	bne	100084 <RW_loop>
  100094:	ea000002 	b	1000a4 <RW_end>

00100098 <RW_addresses>:
  100098:	00104b48 	.word	0x00104b48
  10009c:	00200000 	.word	0x00200000
  1000a0:	00200954 	.word	0x00200954

001000a4 <RW_end>:
  1000a4:	e28f0014 	add	r0, pc, #20
  1000a8:	e8900006 	ldm	r0, {r1, r2}
  1000ac:	e3a00000 	mov	r0, #0

001000b0 <ZI_loop>:
  1000b0:	e1510002 	cmp	r1, r2
  1000b4:	34810004 	strcc	r0, [r1], #4
  1000b8:	3afffffc 	bcc	1000b0 <ZI_loop>
  1000bc:	ea000001 	b	1000c8 <ZI_end>

001000c0 <ZI_addresses>:
  1000c0:	00200954 	.word	0x00200954
  1000c4:	00200a50 	.word	0x00200a50

001000c8 <ZI_end>:
  1000c8:	e59f0054 	ldr	r0, [pc, #84]	; 100124 <IRQ_Handler+0x4c>
  1000cc:	e1a0e00f 	mov	lr, pc
  1000d0:	e12fff10 	bx	r0

001000d4 <End>:
  1000d4:	eafffffe 	b	1000d4 <End>

001000d8 <IRQ_Handler>:
  1000d8:	e24ee004 	sub	lr, lr, #4
  1000dc:	e92d4000 	push	{lr}
  1000e0:	e14fe000 	mrs	lr, SPSR
  1000e4:	e92d4001 	push	{r0, lr}
  1000e8:	e59fe038 	ldr	lr, [pc, #56]	; 100128 <IRQ_Handler+0x50>
  1000ec:	e59e0100 	ldr	r0, [lr, #256]	; 0x100
  1000f0:	e58ee100 	str	lr, [lr, #256]	; 0x100
  1000f4:	e321f013 	msr	CPSR_c, #19
  1000f8:	e92d500e 	push	{r1, r2, r3, ip, lr}
  1000fc:	e1a0e00f 	mov	lr, pc
  100100:	e12fff10 	bx	r0
  100104:	e8bd500e 	pop	{r1, r2, r3, ip, lr}
  100108:	e321f092 	msr	CPSR_c, #146	; 0x92
  10010c:	e59fe014 	ldr	lr, [pc, #20]	; 100128 <IRQ_Handler+0x50>
  100110:	e58ee130 	str	lr, [lr, #304]	; 0x130
  100114:	e8bd4001 	pop	{r0, lr}
  100118:	e16ff00e 	msr	SPSR_fsxc, lr
  10011c:	e8fd8000 	ldm	sp!, {pc}^
  100120:	001001f5 	.word	0x001001f5
  100124:	00101945 	.word	0x00101945
  100128:	fffff000 	.word	0xfffff000

0010012c <_read_r>:
  10012c:	2000      	movs	r0, #0
  10012e:	4770      	bx	lr

00100130 <_write_r>:
  100130:	b5f8      	push	{r3, r4, r5, r6, r7, lr}
  100132:	1e1f      	subs	r7, r3, #0
  100134:	d00b      	beq.n	10014e <_write_r+0x1e>
  100136:	4e08      	ldr	r6, [pc, #32]	; (100158 <_write_r+0x28>)
  100138:	1c15      	adds	r5, r2, #0
  10013a:	1c3c      	adds	r4, r7, #0
  10013c:	6833      	ldr	r3, [r6, #0]
  10013e:	7828      	ldrb	r0, [r5, #0]
  100140:	6899      	ldr	r1, [r3, #8]
  100142:	3c01      	subs	r4, #1
  100144:	3501      	adds	r5, #1
  100146:	f000 f8ab 	bl	1002a0 <my_fputc>
  10014a:	2c00      	cmp	r4, #0
  10014c:	d1f6      	bne.n	10013c <_write_r+0xc>
  10014e:	1c38      	adds	r0, r7, #0
  100150:	bcf8      	pop	{r3, r4, r5, r6, r7}
  100152:	bc02      	pop	{r1}
  100154:	4708      	bx	r1
  100156:	46c0      	nop			; (mov r8, r8)
  100158:	00200000 	.word	0x00200000

0010015c <_close_r>:
  10015c:	2000      	movs	r0, #0
  10015e:	4770      	bx	lr

00100160 <_lseek_r>:
  100160:	2000      	movs	r0, #0
  100162:	4770      	bx	lr

00100164 <_fstat_r>:
  100164:	2380      	movs	r3, #128	; 0x80
  100166:	019b      	lsls	r3, r3, #6
  100168:	2000      	movs	r0, #0
  10016a:	6053      	str	r3, [r2, #4]
  10016c:	4770      	bx	lr
  10016e:	46c0      	nop			; (mov r8, r8)

00100170 <_isatty>:
  100170:	2001      	movs	r0, #1
  100172:	4770      	bx	lr

00100174 <_sbrk_r>:
  100174:	b500      	push	{lr}
  100176:	4b05      	ldr	r3, [pc, #20]	; (10018c <_sbrk_r+0x18>)
  100178:	6818      	ldr	r0, [r3, #0]
  10017a:	2800      	cmp	r0, #0
  10017c:	d003      	beq.n	100186 <_sbrk_r+0x12>
  10017e:	1841      	adds	r1, r0, r1
  100180:	6019      	str	r1, [r3, #0]
  100182:	bc02      	pop	{r1}
  100184:	4708      	bx	r1
  100186:	4802      	ldr	r0, [pc, #8]	; (100190 <_sbrk_r+0x1c>)
  100188:	e7f9      	b.n	10017e <_sbrk_r+0xa>
  10018a:	46c0      	nop			; (mov r8, r8)
  10018c:	00200988 	.word	0x00200988
  100190:	00200a50 	.word	0x00200a50

00100194 <DEV_Resume>:
  100194:	b500      	push	{lr}
  100196:	4b13      	ldr	r3, [pc, #76]	; (1001e4 <DEV_Resume+0x50>)
  100198:	2280      	movs	r2, #128	; 0x80
  10019a:	0052      	lsls	r2, r2, #1
  10019c:	661a      	str	r2, [r3, #96]	; 0x60
  10019e:	4812      	ldr	r0, [pc, #72]	; (1001e8 <DEV_Resume+0x54>)
  1001a0:	4b12      	ldr	r3, [pc, #72]	; (1001ec <DEV_Resume+0x58>)
  1001a2:	6203      	str	r3, [r0, #32]
  1001a4:	2101      	movs	r1, #1
  1001a6:	6e83      	ldr	r3, [r0, #104]	; 0x68
  1001a8:	4a0f      	ldr	r2, [pc, #60]	; (1001e8 <DEV_Resume+0x54>)
  1001aa:	4219      	tst	r1, r3
  1001ac:	d0fb      	beq.n	1001a6 <DEV_Resume+0x12>
  1001ae:	4b10      	ldr	r3, [pc, #64]	; (1001f0 <DEV_Resume+0x5c>)
  1001b0:	62d3      	str	r3, [r2, #44]	; 0x2c
  1001b2:	1c10      	adds	r0, r2, #0
  1001b4:	2104      	movs	r1, #4
  1001b6:	6e83      	ldr	r3, [r0, #104]	; 0x68
  1001b8:	4a0b      	ldr	r2, [pc, #44]	; (1001e8 <DEV_Resume+0x54>)
  1001ba:	4219      	tst	r1, r3
  1001bc:	d0fb      	beq.n	1001b6 <DEV_Resume+0x22>
  1001be:	2304      	movs	r3, #4
  1001c0:	6313      	str	r3, [r2, #48]	; 0x30
  1001c2:	1c10      	adds	r0, r2, #0
  1001c4:	2108      	movs	r1, #8
  1001c6:	6e83      	ldr	r3, [r0, #104]	; 0x68
  1001c8:	4a07      	ldr	r2, [pc, #28]	; (1001e8 <DEV_Resume+0x54>)
  1001ca:	4219      	tst	r1, r3
  1001cc:	d0fb      	beq.n	1001c6 <DEV_Resume+0x32>
  1001ce:	6b11      	ldr	r1, [r2, #48]	; 0x30
  1001d0:	2303      	movs	r3, #3
  1001d2:	430b      	orrs	r3, r1
  1001d4:	6313      	str	r3, [r2, #48]	; 0x30
  1001d6:	2108      	movs	r1, #8
  1001d8:	6e93      	ldr	r3, [r2, #104]	; 0x68
  1001da:	4219      	tst	r1, r3
  1001dc:	d0fc      	beq.n	1001d8 <DEV_Resume+0x44>
  1001de:	bc01      	pop	{r0}
  1001e0:	4700      	bx	r0
  1001e2:	46c0      	nop			; (mov r8, r8)
  1001e4:	ffffff00 	.word	0xffffff00
  1001e8:	fffffc00 	.word	0xfffffc00
  1001ec:	00000801 	.word	0x00000801
  1001f0:	1048280e 	.word	0x1048280e

001001f4 <DEV_Init>:
  1001f4:	b508      	push	{r3, lr}
  1001f6:	4b0a      	ldr	r3, [pc, #40]	; (100220 <DEV_Init+0x2c>)
  1001f8:	2201      	movs	r2, #1
  1001fa:	4252      	negs	r2, r2
  1001fc:	631a      	str	r2, [r3, #48]	; 0x30
  1001fe:	601a      	str	r2, [r3, #0]
  100200:	611a      	str	r2, [r3, #16]
  100202:	661a      	str	r2, [r3, #96]	; 0x60
  100204:	2200      	movs	r2, #0
  100206:	665a      	str	r2, [r3, #100]	; 0x64
  100208:	4b06      	ldr	r3, [pc, #24]	; (100224 <DEV_Init+0x30>)
  10020a:	2280      	movs	r2, #128	; 0x80
  10020c:	0212      	lsls	r2, r2, #8
  10020e:	605a      	str	r2, [r3, #4]
  100210:	4a05      	ldr	r2, [pc, #20]	; (100228 <DEV_Init+0x34>)
  100212:	4b06      	ldr	r3, [pc, #24]	; (10022c <DEV_Init+0x38>)
  100214:	609a      	str	r2, [r3, #8]
  100216:	f7ff ffbd 	bl	100194 <DEV_Resume>
  10021a:	bc08      	pop	{r3}
  10021c:	bc01      	pop	{r0}
  10021e:	4700      	bx	r0
  100220:	fffff400 	.word	0xfffff400
  100224:	fffffd40 	.word	0xfffffd40
  100228:	a5000401 	.word	0xa5000401
  10022c:	fffffd00 	.word	0xfffffd00

00100230 <BRD_IsVBusConnected>:
  100230:	4b02      	ldr	r3, [pc, #8]	; (10023c <BRD_IsVBusConnected+0xc>)
  100232:	6bd8      	ldr	r0, [r3, #60]	; 0x3c
  100234:	0480      	lsls	r0, r0, #18
  100236:	0fc0      	lsrs	r0, r0, #31
  100238:	4770      	bx	lr
  10023a:	46c0      	nop			; (mov r8, r8)
  10023c:	fffff400 	.word	0xfffff400

00100240 <BRD_ConnectPullUp>:
  100240:	4b02      	ldr	r3, [pc, #8]	; (10024c <BRD_ConnectPullUp+0xc>)
  100242:	2280      	movs	r2, #128	; 0x80
  100244:	0252      	lsls	r2, r2, #9
  100246:	635a      	str	r2, [r3, #52]	; 0x34
  100248:	4770      	bx	lr
  10024a:	46c0      	nop			; (mov r8, r8)
  10024c:	fffff400 	.word	0xfffff400

00100250 <BRD_DisconnectPullUp>:
  100250:	4b02      	ldr	r3, [pc, #8]	; (10025c <BRD_DisconnectPullUp+0xc>)
  100252:	2280      	movs	r2, #128	; 0x80
  100254:	0252      	lsls	r2, r2, #9
  100256:	631a      	str	r2, [r3, #48]	; 0x30
  100258:	4770      	bx	lr
  10025a:	46c0      	nop			; (mov r8, r8)
  10025c:	fffff400 	.word	0xfffff400

00100260 <BRD_ConfigurePullUp>:
  100260:	4b04      	ldr	r3, [pc, #16]	; (100274 <BRD_ConfigurePullUp+0x14>)
  100262:	2204      	movs	r2, #4
  100264:	611a      	str	r2, [r3, #16]
  100266:	4b04      	ldr	r3, [pc, #16]	; (100278 <BRD_ConfigurePullUp+0x18>)
  100268:	2280      	movs	r2, #128	; 0x80
  10026a:	0252      	lsls	r2, r2, #9
  10026c:	601a      	str	r2, [r3, #0]
  10026e:	611a      	str	r2, [r3, #16]
  100270:	4770      	bx	lr
  100272:	46c0      	nop			; (mov r8, r8)
  100274:	fffffc00 	.word	0xfffffc00
  100278:	fffff400 	.word	0xfffff400

0010027c <BRD_ConfigureVBus>:
  10027c:	4b05      	ldr	r3, [pc, #20]	; (100294 <BRD_ConfigureVBus+0x18>)
  10027e:	2204      	movs	r2, #4
  100280:	611a      	str	r2, [r3, #16]
  100282:	4905      	ldr	r1, [pc, #20]	; (100298 <BRD_ConfigureVBus+0x1c>)
  100284:	4b05      	ldr	r3, [pc, #20]	; (10029c <BRD_ConfigureVBus+0x20>)
  100286:	2280      	movs	r2, #128	; 0x80
  100288:	0192      	lsls	r2, r2, #6
  10028a:	661a      	str	r2, [r3, #96]	; 0x60
  10028c:	6659      	str	r1, [r3, #100]	; 0x64
  10028e:	615a      	str	r2, [r3, #20]
  100290:	601a      	str	r2, [r3, #0]
  100292:	4770      	bx	lr
  100294:	fffffc00 	.word	0xfffffc00
  100298:	ffffdfff 	.word	0xffffdfff
  10029c:	fffff400 	.word	0xfffff400

001002a0 <my_fputc>:
  1002a0:	b5f0      	push	{r4, r5, r6, r7, lr}
  1002a2:	4b1a      	ldr	r3, [pc, #104]	; (10030c <my_fputc+0x6c>)
  1002a4:	681b      	ldr	r3, [r3, #0]
  1002a6:	689b      	ldr	r3, [r3, #8]
  1002a8:	428b      	cmp	r3, r1
  1002aa:	d004      	beq.n	1002b6 <my_fputc+0x16>
  1002ac:	2001      	movs	r0, #1
  1002ae:	4240      	negs	r0, r0
  1002b0:	bcf0      	pop	{r4, r5, r6, r7}
  1002b2:	bc02      	pop	{r1}
  1002b4:	4708      	bx	r1
  1002b6:	4b16      	ldr	r3, [pc, #88]	; (100310 <my_fputc+0x70>)
  1002b8:	2288      	movs	r2, #136	; 0x88
  1002ba:	0052      	lsls	r2, r2, #1
  1002bc:	5899      	ldr	r1, [r3, r2]
  1002be:	2292      	movs	r2, #146	; 0x92
  1002c0:	468c      	mov	ip, r1
  1002c2:	2101      	movs	r1, #1
  1002c4:	4249      	negs	r1, r1
  1002c6:	0052      	lsls	r2, r2, #1
  1002c8:	5099      	str	r1, [r3, r2]
  1002ca:	4c12      	ldr	r4, [pc, #72]	; (100314 <my_fputc+0x74>)
  1002cc:	4e12      	ldr	r6, [pc, #72]	; (100318 <my_fputc+0x78>)
  1002ce:	6823      	ldr	r3, [r4, #0]
  1002d0:	6835      	ldr	r5, [r6, #0]
  1002d2:	1c5f      	adds	r7, r3, #1
  1002d4:	54e8      	strb	r0, [r5, r3]
  1002d6:	6027      	str	r7, [r4, #0]
  1002d8:	280d      	cmp	r0, #13
  1002da:	d112      	bne.n	100302 <my_fputc+0x62>
  1002dc:	490f      	ldr	r1, [pc, #60]	; (10031c <my_fputc+0x7c>)
  1002de:	68cb      	ldr	r3, [r1, #12]
  1002e0:	4a0e      	ldr	r2, [pc, #56]	; (10031c <my_fputc+0x7c>)
  1002e2:	2b00      	cmp	r3, #0
  1002e4:	d1fb      	bne.n	1002de <my_fputc+0x3e>
  1002e6:	4b0e      	ldr	r3, [pc, #56]	; (100320 <my_fputc+0x80>)
  1002e8:	6095      	str	r5, [r2, #8]
  1002ea:	60d7      	str	r7, [r2, #12]
  1002ec:	429d      	cmp	r5, r3
  1002ee:	d00b      	beq.n	100308 <my_fputc+0x68>
  1002f0:	6033      	str	r3, [r6, #0]
  1002f2:	2300      	movs	r3, #0
  1002f4:	6023      	str	r3, [r4, #0]
  1002f6:	2390      	movs	r3, #144	; 0x90
  1002f8:	4a05      	ldr	r2, [pc, #20]	; (100310 <my_fputc+0x70>)
  1002fa:	005b      	lsls	r3, r3, #1
  1002fc:	4661      	mov	r1, ip
  1002fe:	50d1      	str	r1, [r2, r3]
  100300:	e7d4      	b.n	1002ac <my_fputc+0xc>
  100302:	2b3f      	cmp	r3, #63	; 0x3f
  100304:	d1f7      	bne.n	1002f6 <my_fputc+0x56>
  100306:	e7e9      	b.n	1002dc <my_fputc+0x3c>
  100308:	4b06      	ldr	r3, [pc, #24]	; (100324 <my_fputc+0x84>)
  10030a:	e7f1      	b.n	1002f0 <my_fputc+0x50>
  10030c:	00200000 	.word	0x00200000
  100310:	fffff000 	.word	0xfffff000
  100314:	00200a0c 	.word	0x00200a0c
  100318:	002008c0 	.word	0x002008c0
  10031c:	fffff300 	.word	0xfffff300
  100320:	0020098c 	.word	0x0020098c
  100324:	002009cc 	.word	0x002009cc

00100328 <USB_SetAddress>:
  100328:	b508      	push	{r3, lr}
  10032a:	6803      	ldr	r3, [r0, #0]
  10032c:	695b      	ldr	r3, [r3, #20]
  10032e:	6a1b      	ldr	r3, [r3, #32]
  100330:	f000 f803 	bl	10033a <USB_SetAddress+0x12>
  100334:	bc08      	pop	{r3}
  100336:	bc01      	pop	{r0}
  100338:	4700      	bx	r0
  10033a:	4718      	bx	r3

0010033c <STD_ConfigureEndpoints>:
  10033c:	b538      	push	{r3, r4, r5, lr}
  10033e:	1c05      	adds	r5, r0, #0
  100340:	6800      	ldr	r0, [r0, #0]
  100342:	6803      	ldr	r3, [r0, #0]
  100344:	695b      	ldr	r3, [r3, #20]
  100346:	6a5b      	ldr	r3, [r3, #36]	; 0x24
  100348:	f000 f81b 	bl	100382 <STD_ConfigureEndpoints+0x46>
  10034c:	6828      	ldr	r0, [r5, #0]
  10034e:	6883      	ldr	r3, [r0, #8]
  100350:	2b01      	cmp	r3, #1
  100352:	d013      	beq.n	10037c <STD_ConfigureEndpoints+0x40>
  100354:	2300      	movs	r3, #0
  100356:	2400      	movs	r4, #0
  100358:	6802      	ldr	r2, [r0, #0]
  10035a:	6869      	ldr	r1, [r5, #4]
  10035c:	6952      	ldr	r2, [r2, #20]
  10035e:	68c9      	ldr	r1, [r1, #12]
  100360:	009b      	lsls	r3, r3, #2
  100362:	5859      	ldr	r1, [r3, r1]
  100364:	6993      	ldr	r3, [r2, #24]
  100366:	f000 f80c 	bl	100382 <STD_ConfigureEndpoints+0x46>
  10036a:	6828      	ldr	r0, [r5, #0]
  10036c:	3401      	adds	r4, #1
  10036e:	6882      	ldr	r2, [r0, #8]
  100370:	0624      	lsls	r4, r4, #24
  100372:	0e24      	lsrs	r4, r4, #24
  100374:	3a01      	subs	r2, #1
  100376:	1c23      	adds	r3, r4, #0
  100378:	4294      	cmp	r4, r2
  10037a:	d3ed      	bcc.n	100358 <STD_ConfigureEndpoints+0x1c>
  10037c:	bc38      	pop	{r3, r4, r5}
  10037e:	bc01      	pop	{r0}
  100380:	4700      	bx	r0
  100382:	4718      	bx	r3

00100384 <STD_RequestHandler>:
  100384:	b570      	push	{r4, r5, r6, lr}
  100386:	6803      	ldr	r3, [r0, #0]
  100388:	691d      	ldr	r5, [r3, #16]
  10038a:	b082      	sub	sp, #8
  10038c:	1c04      	adds	r4, r0, #0
  10038e:	4897      	ldr	r0, [pc, #604]	; (1005ec <STD_RequestHandler+0x268>)
  100390:	f001 fbcc 	bl	101b2c <iprintf>
  100394:	7869      	ldrb	r1, [r5, #1]
  100396:	2909      	cmp	r1, #9
  100398:	d90d      	bls.n	1003b6 <STD_RequestHandler+0x32>
  10039a:	4895      	ldr	r0, [pc, #596]	; (1005f0 <STD_RequestHandler+0x26c>)
  10039c:	f001 fbc6 	bl	101b2c <iprintf>
  1003a0:	6820      	ldr	r0, [r4, #0]
  1003a2:	6803      	ldr	r3, [r0, #0]
  1003a4:	695b      	ldr	r3, [r3, #20]
  1003a6:	2100      	movs	r1, #0
  1003a8:	68db      	ldr	r3, [r3, #12]
  1003aa:	f000 f94b 	bl	100644 <STD_RequestHandler+0x2c0>
  1003ae:	b002      	add	sp, #8
  1003b0:	bc70      	pop	{r4, r5, r6}
  1003b2:	bc01      	pop	{r0}
  1003b4:	4700      	bx	r0
  1003b6:	4a8f      	ldr	r2, [pc, #572]	; (1005f4 <STD_RequestHandler+0x270>)
  1003b8:	008b      	lsls	r3, r1, #2
  1003ba:	58d3      	ldr	r3, [r2, r3]
  1003bc:	469f      	mov	pc, r3
  1003be:	488e      	ldr	r0, [pc, #568]	; (1005f8 <STD_RequestHandler+0x274>)
  1003c0:	f001 fbb4 	bl	101b2c <iprintf>
  1003c4:	7829      	ldrb	r1, [r5, #0]
  1003c6:	231f      	movs	r3, #31
  1003c8:	400b      	ands	r3, r1
  1003ca:	d000      	beq.n	1003ce <STD_RequestHandler+0x4a>
  1003cc:	e091      	b.n	1004f2 <STD_RequestHandler+0x16e>
  1003ce:	488b      	ldr	r0, [pc, #556]	; (1005fc <STD_RequestHandler+0x278>)
  1003d0:	f001 fbac 	bl	101b2c <iprintf>
  1003d4:	6863      	ldr	r3, [r4, #4]
  1003d6:	685b      	ldr	r3, [r3, #4]
  1003d8:	79db      	ldrb	r3, [r3, #7]
  1003da:	22c0      	movs	r2, #192	; 0xc0
  1003dc:	4013      	ands	r3, r2
  1003de:	2bc0      	cmp	r3, #192	; 0xc0
  1003e0:	d100      	bne.n	1003e4 <STD_RequestHandler+0x60>
  1003e2:	e0d0      	b.n	100586 <STD_RequestHandler+0x202>
  1003e4:	8923      	ldrh	r3, [r4, #8]
  1003e6:	2201      	movs	r2, #1
  1003e8:	4393      	bics	r3, r2
  1003ea:	8123      	strh	r3, [r4, #8]
  1003ec:	6820      	ldr	r0, [r4, #0]
  1003ee:	6803      	ldr	r3, [r0, #0]
  1003f0:	1c22      	adds	r2, r4, #0
  1003f2:	6959      	ldr	r1, [r3, #20]
  1003f4:	3208      	adds	r2, #8
  1003f6:	2300      	movs	r3, #0
  1003f8:	9300      	str	r3, [sp, #0]
  1003fa:	9301      	str	r3, [sp, #4]
  1003fc:	2302      	movs	r3, #2
  1003fe:	684d      	ldr	r5, [r1, #4]
  100400:	2100      	movs	r1, #0
  100402:	f000 f921 	bl	100648 <STD_RequestHandler+0x2c4>
  100406:	e7d2      	b.n	1003ae <STD_RequestHandler+0x2a>
  100408:	487d      	ldr	r0, [pc, #500]	; (100600 <STD_RequestHandler+0x27c>)
  10040a:	f001 fb8f 	bl	101b2c <iprintf>
  10040e:	78ee      	ldrb	r6, [r5, #3]
  100410:	78ab      	ldrb	r3, [r5, #2]
  100412:	0236      	lsls	r6, r6, #8
  100414:	431e      	orrs	r6, r3
  100416:	d166      	bne.n	1004e6 <STD_RequestHandler+0x162>
  100418:	487a      	ldr	r0, [pc, #488]	; (100604 <STD_RequestHandler+0x280>)
  10041a:	f001 fb87 	bl	101b2c <iprintf>
  10041e:	6820      	ldr	r0, [r4, #0]
  100420:	6803      	ldr	r3, [r0, #0]
  100422:	695b      	ldr	r3, [r3, #20]
  100424:	7929      	ldrb	r1, [r5, #4]
  100426:	227f      	movs	r2, #127	; 0x7f
  100428:	691b      	ldr	r3, [r3, #16]
  10042a:	4011      	ands	r1, r2
  10042c:	2201      	movs	r2, #1
  10042e:	f000 f909 	bl	100644 <STD_RequestHandler+0x2c0>
  100432:	6820      	ldr	r0, [r4, #0]
  100434:	6803      	ldr	r3, [r0, #0]
  100436:	695b      	ldr	r3, [r3, #20]
  100438:	9600      	str	r6, [sp, #0]
  10043a:	9601      	str	r6, [sp, #4]
  10043c:	e019      	b.n	100472 <STD_RequestHandler+0xee>
  10043e:	4872      	ldr	r0, [pc, #456]	; (100608 <STD_RequestHandler+0x284>)
  100440:	f001 fb74 	bl	101b2c <iprintf>
  100444:	78ee      	ldrb	r6, [r5, #3]
  100446:	78ab      	ldrb	r3, [r5, #2]
  100448:	0236      	lsls	r6, r6, #8
  10044a:	431e      	orrs	r6, r3
  10044c:	d155      	bne.n	1004fa <STD_RequestHandler+0x176>
  10044e:	6820      	ldr	r0, [r4, #0]
  100450:	6803      	ldr	r3, [r0, #0]
  100452:	7929      	ldrb	r1, [r5, #4]
  100454:	695b      	ldr	r3, [r3, #20]
  100456:	227f      	movs	r2, #127	; 0x7f
  100458:	4011      	ands	r1, r2
  10045a:	691b      	ldr	r3, [r3, #16]
  10045c:	2203      	movs	r2, #3
  10045e:	e7e6      	b.n	10042e <STD_RequestHandler+0xaa>
  100460:	486a      	ldr	r0, [pc, #424]	; (10060c <STD_RequestHandler+0x288>)
  100462:	f001 fb63 	bl	101b2c <iprintf>
  100466:	6820      	ldr	r0, [r4, #0]
  100468:	4a69      	ldr	r2, [pc, #420]	; (100610 <STD_RequestHandler+0x28c>)
  10046a:	6803      	ldr	r3, [r0, #0]
  10046c:	695b      	ldr	r3, [r3, #20]
  10046e:	9200      	str	r2, [sp, #0]
  100470:	9001      	str	r0, [sp, #4]
  100472:	685c      	ldr	r4, [r3, #4]
  100474:	2100      	movs	r1, #0
  100476:	2200      	movs	r2, #0
  100478:	2300      	movs	r3, #0
  10047a:	f000 f8e4 	bl	100646 <STD_RequestHandler+0x2c2>
  10047e:	e796      	b.n	1003ae <STD_RequestHandler+0x2a>
  100480:	4864      	ldr	r0, [pc, #400]	; (100614 <STD_RequestHandler+0x290>)
  100482:	f001 fb53 	bl	101b2c <iprintf>
  100486:	6820      	ldr	r0, [r4, #0]
  100488:	6943      	ldr	r3, [r0, #20]
  10048a:	681b      	ldr	r3, [r3, #0]
  10048c:	06db      	lsls	r3, r3, #27
  10048e:	0fdb      	lsrs	r3, r3, #31
  100490:	8163      	strh	r3, [r4, #10]
  100492:	6803      	ldr	r3, [r0, #0]
  100494:	6959      	ldr	r1, [r3, #20]
  100496:	2300      	movs	r3, #0
  100498:	9300      	str	r3, [sp, #0]
  10049a:	9301      	str	r3, [sp, #4]
  10049c:	1c22      	adds	r2, r4, #0
  10049e:	684d      	ldr	r5, [r1, #4]
  1004a0:	320a      	adds	r2, #10
  1004a2:	2100      	movs	r1, #0
  1004a4:	2301      	movs	r3, #1
  1004a6:	f000 f8cf 	bl	100648 <STD_RequestHandler+0x2c4>
  1004aa:	e780      	b.n	1003ae <STD_RequestHandler+0x2a>
  1004ac:	485a      	ldr	r0, [pc, #360]	; (100618 <STD_RequestHandler+0x294>)
  1004ae:	f001 fb3d 	bl	101b2c <iprintf>
  1004b2:	6820      	ldr	r0, [r4, #0]
  1004b4:	4a59      	ldr	r2, [pc, #356]	; (10061c <STD_RequestHandler+0x298>)
  1004b6:	6803      	ldr	r3, [r0, #0]
  1004b8:	695b      	ldr	r3, [r3, #20]
  1004ba:	9200      	str	r2, [sp, #0]
  1004bc:	9401      	str	r4, [sp, #4]
  1004be:	e7d8      	b.n	100472 <STD_RequestHandler+0xee>
  1004c0:	4857      	ldr	r0, [pc, #348]	; (100620 <STD_RequestHandler+0x29c>)
  1004c2:	f001 fb33 	bl	101b2c <iprintf>
  1004c6:	78eb      	ldrb	r3, [r5, #3]
  1004c8:	78aa      	ldrb	r2, [r5, #2]
  1004ca:	021b      	lsls	r3, r3, #8
  1004cc:	4313      	orrs	r3, r2
  1004ce:	041b      	lsls	r3, r3, #16
  1004d0:	0c19      	lsrs	r1, r3, #16
  1004d2:	0e1b      	lsrs	r3, r3, #24
  1004d4:	2b02      	cmp	r3, #2
  1004d6:	d075      	beq.n	1005c4 <STD_RequestHandler+0x240>
  1004d8:	2b03      	cmp	r3, #3
  1004da:	d059      	beq.n	100590 <STD_RequestHandler+0x20c>
  1004dc:	2b01      	cmp	r3, #1
  1004de:	d011      	beq.n	100504 <STD_RequestHandler+0x180>
  1004e0:	7869      	ldrb	r1, [r5, #1]
  1004e2:	4850      	ldr	r0, [pc, #320]	; (100624 <STD_RequestHandler+0x2a0>)
  1004e4:	e75a      	b.n	10039c <STD_RequestHandler+0x18>
  1004e6:	2e01      	cmp	r6, #1
  1004e8:	d046      	beq.n	100578 <STD_RequestHandler+0x1f4>
  1004ea:	484f      	ldr	r0, [pc, #316]	; (100628 <STD_RequestHandler+0x2a4>)
  1004ec:	f001 fb1e 	bl	101b2c <iprintf>
  1004f0:	e756      	b.n	1003a0 <STD_RequestHandler+0x1c>
  1004f2:	2b02      	cmp	r3, #2
  1004f4:	d02c      	beq.n	100550 <STD_RequestHandler+0x1cc>
  1004f6:	484d      	ldr	r0, [pc, #308]	; (10062c <STD_RequestHandler+0x2a8>)
  1004f8:	e750      	b.n	10039c <STD_RequestHandler+0x18>
  1004fa:	2e01      	cmp	r6, #1
  1004fc:	d018      	beq.n	100530 <STD_RequestHandler+0x1ac>
  1004fe:	484c      	ldr	r0, [pc, #304]	; (100630 <STD_RequestHandler+0x2ac>)
  100500:	1c31      	adds	r1, r6, #0
  100502:	e74b      	b.n	10039c <STD_RequestHandler+0x18>
  100504:	483d      	ldr	r0, [pc, #244]	; (1005fc <STD_RequestHandler+0x278>)
  100506:	f001 fb11 	bl	101b2c <iprintf>
  10050a:	6820      	ldr	r0, [r4, #0]
  10050c:	6802      	ldr	r2, [r0, #0]
  10050e:	79eb      	ldrb	r3, [r5, #7]
  100510:	79a9      	ldrb	r1, [r5, #6]
  100512:	6955      	ldr	r5, [r2, #20]
  100514:	6862      	ldr	r2, [r4, #4]
  100516:	021b      	lsls	r3, r3, #8
  100518:	6812      	ldr	r2, [r2, #0]
  10051a:	430b      	orrs	r3, r1
  10051c:	2b12      	cmp	r3, #18
  10051e:	d900      	bls.n	100522 <STD_RequestHandler+0x19e>
  100520:	2312      	movs	r3, #18
  100522:	2100      	movs	r1, #0
  100524:	9100      	str	r1, [sp, #0]
  100526:	9101      	str	r1, [sp, #4]
  100528:	686c      	ldr	r4, [r5, #4]
  10052a:	f000 f88c 	bl	100646 <STD_RequestHandler+0x2c2>
  10052e:	e73e      	b.n	1003ae <STD_RequestHandler+0x2a>
  100530:	8922      	ldrh	r2, [r4, #8]
  100532:	2302      	movs	r3, #2
  100534:	4313      	orrs	r3, r2
  100536:	6820      	ldr	r0, [r4, #0]
  100538:	8123      	strh	r3, [r4, #8]
  10053a:	6803      	ldr	r3, [r0, #0]
  10053c:	695a      	ldr	r2, [r3, #20]
  10053e:	2300      	movs	r3, #0
  100540:	9300      	str	r3, [sp, #0]
  100542:	9301      	str	r3, [sp, #4]
  100544:	2100      	movs	r1, #0
  100546:	6854      	ldr	r4, [r2, #4]
  100548:	2200      	movs	r2, #0
  10054a:	f000 f87c 	bl	100646 <STD_RequestHandler+0x2c2>
  10054e:	e72e      	b.n	1003ae <STD_RequestHandler+0x2a>
  100550:	4838      	ldr	r0, [pc, #224]	; (100634 <STD_RequestHandler+0x2b0>)
  100552:	f001 faeb 	bl	101b2c <iprintf>
  100556:	6820      	ldr	r0, [r4, #0]
  100558:	6803      	ldr	r3, [r0, #0]
  10055a:	7929      	ldrb	r1, [r5, #4]
  10055c:	695b      	ldr	r3, [r3, #20]
  10055e:	227f      	movs	r2, #127	; 0x7f
  100560:	4011      	ands	r1, r2
  100562:	691b      	ldr	r3, [r3, #16]
  100564:	2200      	movs	r2, #0
  100566:	f000 f86d 	bl	100644 <STD_RequestHandler+0x2c0>
  10056a:	8160      	strh	r0, [r4, #10]
  10056c:	6820      	ldr	r0, [r4, #0]
  10056e:	6803      	ldr	r3, [r0, #0]
  100570:	1c22      	adds	r2, r4, #0
  100572:	6959      	ldr	r1, [r3, #20]
  100574:	320a      	adds	r2, #10
  100576:	e73e      	b.n	1003f6 <STD_RequestHandler+0x72>
  100578:	482f      	ldr	r0, [pc, #188]	; (100638 <STD_RequestHandler+0x2b4>)
  10057a:	f001 fad7 	bl	101b2c <iprintf>
  10057e:	8923      	ldrh	r3, [r4, #8]
  100580:	2202      	movs	r2, #2
  100582:	4393      	bics	r3, r2
  100584:	e7d7      	b.n	100536 <STD_RequestHandler+0x1b2>
  100586:	8922      	ldrh	r2, [r4, #8]
  100588:	2301      	movs	r3, #1
  10058a:	4313      	orrs	r3, r2
  10058c:	8123      	strh	r3, [r4, #8]
  10058e:	e72d      	b.n	1003ec <STD_RequestHandler+0x68>
  100590:	0609      	lsls	r1, r1, #24
  100592:	0e09      	lsrs	r1, r1, #24
  100594:	4829      	ldr	r0, [pc, #164]	; (10063c <STD_RequestHandler+0x2b8>)
  100596:	f001 fac9 	bl	101b2c <iprintf>
  10059a:	cc09      	ldmia	r4!, {r0, r3}
  10059c:	78aa      	ldrb	r2, [r5, #2]
  10059e:	689b      	ldr	r3, [r3, #8]
  1005a0:	0092      	lsls	r2, r2, #2
  1005a2:	79e9      	ldrb	r1, [r5, #7]
  1005a4:	58d2      	ldr	r2, [r2, r3]
  1005a6:	79ab      	ldrb	r3, [r5, #6]
  1005a8:	0209      	lsls	r1, r1, #8
  1005aa:	4319      	orrs	r1, r3
  1005ac:	6803      	ldr	r3, [r0, #0]
  1005ae:	695c      	ldr	r4, [r3, #20]
  1005b0:	7813      	ldrb	r3, [r2, #0]
  1005b2:	428b      	cmp	r3, r1
  1005b4:	d817      	bhi.n	1005e6 <STD_RequestHandler+0x262>
  1005b6:	2100      	movs	r1, #0
  1005b8:	9100      	str	r1, [sp, #0]
  1005ba:	9101      	str	r1, [sp, #4]
  1005bc:	6864      	ldr	r4, [r4, #4]
  1005be:	f000 f842 	bl	100646 <STD_RequestHandler+0x2c2>
  1005c2:	e6f4      	b.n	1003ae <STD_RequestHandler+0x2a>
  1005c4:	481e      	ldr	r0, [pc, #120]	; (100640 <STD_RequestHandler+0x2bc>)
  1005c6:	f001 fab1 	bl	101b2c <iprintf>
  1005ca:	cc09      	ldmia	r4!, {r0, r3}
  1005cc:	685a      	ldr	r2, [r3, #4]
  1005ce:	78d1      	ldrb	r1, [r2, #3]
  1005d0:	7893      	ldrb	r3, [r2, #2]
  1005d2:	0209      	lsls	r1, r1, #8
  1005d4:	4319      	orrs	r1, r3
  1005d6:	79eb      	ldrb	r3, [r5, #7]
  1005d8:	79ae      	ldrb	r6, [r5, #6]
  1005da:	6804      	ldr	r4, [r0, #0]
  1005dc:	021b      	lsls	r3, r3, #8
  1005de:	6964      	ldr	r4, [r4, #20]
  1005e0:	4333      	orrs	r3, r6
  1005e2:	428b      	cmp	r3, r1
  1005e4:	d9e7      	bls.n	1005b6 <STD_RequestHandler+0x232>
  1005e6:	1c0b      	adds	r3, r1, #0
  1005e8:	e7e5      	b.n	1005b6 <STD_RequestHandler+0x232>
  1005ea:	46c0      	nop			; (mov r8, r8)
  1005ec:	00104668 	.word	0x00104668
  1005f0:	00104788 	.word	0x00104788
  1005f4:	00104640 	.word	0x00104640
  1005f8:	00104700 	.word	0x00104700
  1005fc:	00104678 	.word	0x00104678
  100600:	001046e0 	.word	0x001046e0
  100604:	001046e8 	.word	0x001046e8
  100608:	00104748 	.word	0x00104748
  10060c:	001046c8 	.word	0x001046c8
  100610:	00100329 	.word	0x00100329
  100614:	001046d8 	.word	0x001046d8
  100618:	001046d0 	.word	0x001046d0
  10061c:	0010033d 	.word	0x0010033d
  100620:	00104670 	.word	0x00104670
  100624:	00104690 	.word	0x00104690
  100628:	001046f8 	.word	0x001046f8
  10062c:	00104710 	.word	0x00104710
  100630:	00104750 	.word	0x00104750
  100634:	00104708 	.word	0x00104708
  100638:	001046f0 	.word	0x001046f0
  10063c:	00104688 	.word	0x00104688
  100640:	00104680 	.word	0x00104680
  100644:	4718      	bx	r3
  100646:	4720      	bx	r4
  100648:	4728      	bx	r5
  10064a:	46c0      	nop			; (mov r8, r8)

0010064c <UDP_ClearRXFlag>:
  10064c:	b530      	push	{r4, r5, lr}
  10064e:	6883      	ldr	r3, [r0, #8]
  100650:	6842      	ldr	r2, [r0, #4]
  100652:	2500      	movs	r5, #0
  100654:	428b      	cmp	r3, r1
  100656:	d903      	bls.n	100660 <UDP_ClearRXFlag+0x14>
  100658:	008d      	lsls	r5, r1, #2
  10065a:	186d      	adds	r5, r5, r1
  10065c:	00ed      	lsls	r5, r5, #3
  10065e:	1955      	adds	r5, r2, r5
  100660:	6803      	ldr	r3, [r0, #0]
  100662:	1c0a      	adds	r2, r1, #0
  100664:	681b      	ldr	r3, [r3, #0]
  100666:	320c      	adds	r2, #12
  100668:	0092      	lsls	r2, r2, #2
  10066a:	58d1      	ldr	r1, [r2, r3]
  10066c:	69e8      	ldr	r0, [r5, #28]
  10066e:	4208      	tst	r0, r1
  100670:	d006      	beq.n	100680 <UDP_ClearRXFlag+0x34>
  100672:	43c4      	mvns	r4, r0
  100674:	58d1      	ldr	r1, [r2, r3]
  100676:	4021      	ands	r1, r4
  100678:	50d1      	str	r1, [r2, r3]
  10067a:	58d1      	ldr	r1, [r2, r3]
  10067c:	4208      	tst	r0, r1
  10067e:	d1f9      	bne.n	100674 <UDP_ClearRXFlag+0x28>
  100680:	2802      	cmp	r0, #2
  100682:	d004      	beq.n	10068e <UDP_ClearRXFlag+0x42>
  100684:	2302      	movs	r3, #2
  100686:	61eb      	str	r3, [r5, #28]
  100688:	bc30      	pop	{r4, r5}
  10068a:	bc01      	pop	{r0}
  10068c:	4700      	bx	r0
  10068e:	2320      	movs	r3, #32
  100690:	5ceb      	ldrb	r3, [r5, r3]
  100692:	2b01      	cmp	r3, #1
  100694:	d9f8      	bls.n	100688 <UDP_ClearRXFlag+0x3c>
  100696:	2340      	movs	r3, #64	; 0x40
  100698:	61eb      	str	r3, [r5, #28]
  10069a:	e7f5      	b.n	100688 <UDP_ClearRXFlag+0x3c>

0010069c <UDP_WritePayload>:
  10069c:	b5f0      	push	{r4, r5, r6, r7, lr}
  10069e:	6803      	ldr	r3, [r0, #0]
  1006a0:	3004      	adds	r0, #4
  1006a2:	681d      	ldr	r5, [r3, #0]
  1006a4:	c80c      	ldmia	r0!, {r2, r3}
  1006a6:	2400      	movs	r4, #0
  1006a8:	428b      	cmp	r3, r1
  1006aa:	d903      	bls.n	1006b4 <UDP_WritePayload+0x18>
  1006ac:	008c      	lsls	r4, r1, #2
  1006ae:	1864      	adds	r4, r4, r1
  1006b0:	00e4      	lsls	r4, r4, #3
  1006b2:	1914      	adds	r4, r2, r4
  1006b4:	6867      	ldr	r7, [r4, #4]
  1006b6:	69a3      	ldr	r3, [r4, #24]
  1006b8:	1c38      	adds	r0, r7, #0
  1006ba:	429f      	cmp	r7, r3
  1006bc:	d900      	bls.n	1006c0 <UDP_WritePayload+0x24>
  1006be:	1c18      	adds	r0, r3, #0
  1006c0:	2800      	cmp	r0, #0
  1006c2:	d009      	beq.n	1006d8 <UDP_WritePayload+0x3c>
  1006c4:	6823      	ldr	r3, [r4, #0]
  1006c6:	3114      	adds	r1, #20
  1006c8:	181e      	adds	r6, r3, r0
  1006ca:	0089      	lsls	r1, r1, #2
  1006cc:	781a      	ldrb	r2, [r3, #0]
  1006ce:	3301      	adds	r3, #1
  1006d0:	514a      	str	r2, [r1, r5]
  1006d2:	6023      	str	r3, [r4, #0]
  1006d4:	42b3      	cmp	r3, r6
  1006d6:	d1f9      	bne.n	1006cc <UDP_WritePayload+0x30>
  1006d8:	68a3      	ldr	r3, [r4, #8]
  1006da:	1a3f      	subs	r7, r7, r0
  1006dc:	181b      	adds	r3, r3, r0
  1006de:	6067      	str	r7, [r4, #4]
  1006e0:	60a3      	str	r3, [r4, #8]
  1006e2:	bcf0      	pop	{r4, r5, r6, r7}
  1006e4:	bc02      	pop	{r1}
  1006e6:	4708      	bx	r1

001006e8 <UDP_SetAddress>:
  1006e8:	b570      	push	{r4, r5, r6, lr}
  1006ea:	6903      	ldr	r3, [r0, #16]
  1006ec:	78de      	ldrb	r6, [r3, #3]
  1006ee:	789a      	ldrb	r2, [r3, #2]
  1006f0:	0236      	lsls	r6, r6, #8
  1006f2:	6803      	ldr	r3, [r0, #0]
  1006f4:	4316      	orrs	r6, r2
  1006f6:	681c      	ldr	r4, [r3, #0]
  1006f8:	1c05      	adds	r5, r0, #0
  1006fa:	1c31      	adds	r1, r6, #0
  1006fc:	480f      	ldr	r0, [pc, #60]	; (10073c <UDP_SetAddress+0x54>)
  1006fe:	f001 fa15 	bl	101b2c <iprintf>
  100702:	2380      	movs	r3, #128	; 0x80
  100704:	68a2      	ldr	r2, [r4, #8]
  100706:	005b      	lsls	r3, r3, #1
  100708:	4333      	orrs	r3, r6
  10070a:	4313      	orrs	r3, r2
  10070c:	60a3      	str	r3, [r4, #8]
  10070e:	2e00      	cmp	r6, #0
  100710:	d00b      	beq.n	10072a <UDP_SetAddress+0x42>
  100712:	6862      	ldr	r2, [r4, #4]
  100714:	2301      	movs	r3, #1
  100716:	4313      	orrs	r3, r2
  100718:	6063      	str	r3, [r4, #4]
  10071a:	696b      	ldr	r3, [r5, #20]
  10071c:	6819      	ldr	r1, [r3, #0]
  10071e:	2208      	movs	r2, #8
  100720:	430a      	orrs	r2, r1
  100722:	601a      	str	r2, [r3, #0]
  100724:	bc70      	pop	{r4, r5, r6}
  100726:	bc01      	pop	{r0}
  100728:	4700      	bx	r0
  10072a:	6863      	ldr	r3, [r4, #4]
  10072c:	6063      	str	r3, [r4, #4]
  10072e:	696b      	ldr	r3, [r5, #20]
  100730:	681a      	ldr	r2, [r3, #0]
  100732:	2108      	movs	r1, #8
  100734:	438a      	bics	r2, r1
  100736:	601a      	str	r2, [r3, #0]
  100738:	e7f4      	b.n	100724 <UDP_SetAddress+0x3c>
  10073a:	46c0      	nop			; (mov r8, r8)
  10073c:	001047c0 	.word	0x001047c0

00100740 <UDP_RemoteWakeUp>:
  100740:	b510      	push	{r4, lr}
  100742:	6802      	ldr	r2, [r0, #0]
  100744:	68d3      	ldr	r3, [r2, #12]
  100746:	2101      	movs	r1, #1
  100748:	4099      	lsls	r1, r3
  10074a:	4b0c      	ldr	r3, [pc, #48]	; (10077c <UDP_RemoteWakeUp+0x3c>)
  10074c:	6814      	ldr	r4, [r2, #0]
  10074e:	6119      	str	r1, [r3, #16]
  100750:	6819      	ldr	r1, [r3, #0]
  100752:	6912      	ldr	r2, [r2, #16]
  100754:	430a      	orrs	r2, r1
  100756:	601a      	str	r2, [r3, #0]
  100758:	4b09      	ldr	r3, [pc, #36]	; (100780 <UDP_RemoteWakeUp+0x40>)
  10075a:	6f62      	ldr	r2, [r4, #116]	; 0x74
  10075c:	4013      	ands	r3, r2
  10075e:	6763      	str	r3, [r4, #116]	; 0x74
  100760:	4808      	ldr	r0, [pc, #32]	; (100784 <UDP_RemoteWakeUp+0x44>)
  100762:	f001 f9e3 	bl	101b2c <iprintf>
  100766:	6862      	ldr	r2, [r4, #4]
  100768:	2304      	movs	r3, #4
  10076a:	431a      	orrs	r2, r3
  10076c:	6062      	str	r2, [r4, #4]
  10076e:	6862      	ldr	r2, [r4, #4]
  100770:	439a      	bics	r2, r3
  100772:	6062      	str	r2, [r4, #4]
  100774:	bc10      	pop	{r4}
  100776:	bc01      	pop	{r0}
  100778:	4700      	bx	r0
  10077a:	46c0      	nop			; (mov r8, r8)
  10077c:	fffffc00 	.word	0xfffffc00
  100780:	fffffeff 	.word	0xfffffeff
  100784:	001047d0 	.word	0x001047d0

00100788 <UDP_Read>:
  100788:	b5f8      	push	{r3, r4, r5, r6, r7, lr}
  10078a:	464f      	mov	r7, r9
  10078c:	4646      	mov	r6, r8
  10078e:	b4c0      	push	{r6, r7}
  100790:	1c1f      	adds	r7, r3, #0
  100792:	6803      	ldr	r3, [r0, #0]
  100794:	4690      	mov	r8, r2
  100796:	681a      	ldr	r2, [r3, #0]
  100798:	3004      	adds	r0, #4
  10079a:	4691      	mov	r9, r2
  10079c:	c80c      	ldmia	r0!, {r2, r3}
  10079e:	1c0d      	adds	r5, r1, #0
  1007a0:	2400      	movs	r4, #0
  1007a2:	428b      	cmp	r3, r1
  1007a4:	d903      	bls.n	1007ae <UDP_Read+0x26>
  1007a6:	008c      	lsls	r4, r1, #2
  1007a8:	1864      	adds	r4, r4, r1
  1007aa:	00e4      	lsls	r4, r4, #3
  1007ac:	1914      	adds	r4, r2, r4
  1007ae:	6a63      	ldr	r3, [r4, #36]	; 0x24
  1007b0:	2601      	movs	r6, #1
  1007b2:	2b01      	cmp	r3, #1
  1007b4:	d006      	beq.n	1007c4 <UDP_Read+0x3c>
  1007b6:	1c30      	adds	r0, r6, #0
  1007b8:	bc0c      	pop	{r2, r3}
  1007ba:	4690      	mov	r8, r2
  1007bc:	4699      	mov	r9, r3
  1007be:	bcf8      	pop	{r3, r4, r5, r6, r7}
  1007c0:	bc02      	pop	{r1}
  1007c2:	4708      	bx	r1
  1007c4:	1c29      	adds	r1, r5, #0
  1007c6:	1c3a      	adds	r2, r7, #0
  1007c8:	480b      	ldr	r0, [pc, #44]	; (1007f8 <UDP_Read+0x70>)
  1007ca:	f001 f9af 	bl	101b2c <iprintf>
  1007ce:	2303      	movs	r3, #3
  1007d0:	6263      	str	r3, [r4, #36]	; 0x24
  1007d2:	4643      	mov	r3, r8
  1007d4:	6023      	str	r3, [r4, #0]
  1007d6:	2300      	movs	r3, #0
  1007d8:	60a3      	str	r3, [r4, #8]
  1007da:	60e3      	str	r3, [r4, #12]
  1007dc:	9b08      	ldr	r3, [sp, #32]
  1007de:	6123      	str	r3, [r4, #16]
  1007e0:	9b09      	ldr	r3, [sp, #36]	; 0x24
  1007e2:	6067      	str	r7, [r4, #4]
  1007e4:	6163      	str	r3, [r4, #20]
  1007e6:	464a      	mov	r2, r9
  1007e8:	6913      	ldr	r3, [r2, #16]
  1007ea:	40ae      	lsls	r6, r5
  1007ec:	1c35      	adds	r5, r6, #0
  1007ee:	431d      	orrs	r5, r3
  1007f0:	6115      	str	r5, [r2, #16]
  1007f2:	2600      	movs	r6, #0
  1007f4:	e7df      	b.n	1007b6 <UDP_Read+0x2e>
  1007f6:	46c0      	nop			; (mov r8, r8)
  1007f8:	001047e0 	.word	0x001047e0

001007fc <UDP_Write>:
  1007fc:	b5f8      	push	{r3, r4, r5, r6, r7, lr}
  1007fe:	464f      	mov	r7, r9
  100800:	4646      	mov	r6, r8
  100802:	b4c0      	push	{r6, r7}
  100804:	1c1f      	adds	r7, r3, #0
  100806:	6883      	ldr	r3, [r0, #8]
  100808:	4690      	mov	r8, r2
  10080a:	1c04      	adds	r4, r0, #0
  10080c:	1c0e      	adds	r6, r1, #0
  10080e:	6842      	ldr	r2, [r0, #4]
  100810:	2500      	movs	r5, #0
  100812:	428b      	cmp	r3, r1
  100814:	d903      	bls.n	10081e <UDP_Write+0x22>
  100816:	008d      	lsls	r5, r1, #2
  100818:	186d      	adds	r5, r5, r1
  10081a:	00ed      	lsls	r5, r5, #3
  10081c:	1955      	adds	r5, r2, r5
  10081e:	6823      	ldr	r3, [r4, #0]
  100820:	6818      	ldr	r0, [r3, #0]
  100822:	6a6b      	ldr	r3, [r5, #36]	; 0x24
  100824:	4681      	mov	r9, r0
  100826:	2001      	movs	r0, #1
  100828:	2b01      	cmp	r3, #1
  10082a:	d005      	beq.n	100838 <UDP_Write+0x3c>
  10082c:	bc0c      	pop	{r2, r3}
  10082e:	4690      	mov	r8, r2
  100830:	4699      	mov	r9, r3
  100832:	bcf8      	pop	{r3, r4, r5, r6, r7}
  100834:	bc02      	pop	{r1}
  100836:	4708      	bx	r1
  100838:	1c31      	adds	r1, r6, #0
  10083a:	1c3a      	adds	r2, r7, #0
  10083c:	481b      	ldr	r0, [pc, #108]	; (1008ac <UDP_Write+0xb0>)
  10083e:	f001 f975 	bl	101b2c <iprintf>
  100842:	2300      	movs	r3, #0
  100844:	60ab      	str	r3, [r5, #8]
  100846:	60eb      	str	r3, [r5, #12]
  100848:	9b08      	ldr	r3, [sp, #32]
  10084a:	612b      	str	r3, [r5, #16]
  10084c:	9b09      	ldr	r3, [sp, #36]	; 0x24
  10084e:	4642      	mov	r2, r8
  100850:	616b      	str	r3, [r5, #20]
  100852:	2302      	movs	r3, #2
  100854:	602a      	str	r2, [r5, #0]
  100856:	626b      	str	r3, [r5, #36]	; 0x24
  100858:	1c31      	adds	r1, r6, #0
  10085a:	606f      	str	r7, [r5, #4]
  10085c:	1c20      	adds	r0, r4, #0
  10085e:	f7ff ff1d 	bl	10069c <UDP_WritePayload>
  100862:	6823      	ldr	r3, [r4, #0]
  100864:	1c32      	adds	r2, r6, #0
  100866:	681b      	ldr	r3, [r3, #0]
  100868:	320c      	adds	r2, #12
  10086a:	0092      	lsls	r2, r2, #2
  10086c:	58d1      	ldr	r1, [r2, r3]
  10086e:	06c8      	lsls	r0, r1, #27
  100870:	d406      	bmi.n	100880 <UDP_Write+0x84>
  100872:	2110      	movs	r1, #16
  100874:	58d0      	ldr	r0, [r2, r3]
  100876:	4308      	orrs	r0, r1
  100878:	50d0      	str	r0, [r2, r3]
  10087a:	58d0      	ldr	r0, [r2, r3]
  10087c:	4201      	tst	r1, r0
  10087e:	d0f9      	beq.n	100874 <UDP_Write+0x78>
  100880:	2320      	movs	r3, #32
  100882:	5ceb      	ldrb	r3, [r5, r3]
  100884:	2b01      	cmp	r3, #1
  100886:	d902      	bls.n	10088e <UDP_Write+0x92>
  100888:	686b      	ldr	r3, [r5, #4]
  10088a:	2b00      	cmp	r3, #0
  10088c:	d109      	bne.n	1008a2 <UDP_Write+0xa6>
  10088e:	464a      	mov	r2, r9
  100890:	6913      	ldr	r3, [r2, #16]
  100892:	2201      	movs	r2, #1
  100894:	40b2      	lsls	r2, r6
  100896:	1c16      	adds	r6, r2, #0
  100898:	431e      	orrs	r6, r3
  10089a:	464b      	mov	r3, r9
  10089c:	611e      	str	r6, [r3, #16]
  10089e:	2000      	movs	r0, #0
  1008a0:	e7c4      	b.n	10082c <UDP_Write+0x30>
  1008a2:	1c20      	adds	r0, r4, #0
  1008a4:	1c31      	adds	r1, r6, #0
  1008a6:	f7ff fef9 	bl	10069c <UDP_WritePayload>
  1008aa:	e7f0      	b.n	10088e <UDP_Write+0x92>
  1008ac:	001047ec 	.word	0x001047ec

001008b0 <UDP_Disconnect>:
  1008b0:	b510      	push	{r4, lr}
  1008b2:	6803      	ldr	r3, [r0, #0]
  1008b4:	1c04      	adds	r4, r0, #0
  1008b6:	6818      	ldr	r0, [r3, #0]
  1008b8:	f7ff fcca 	bl	100250 <BRD_DisconnectPullUp>
  1008bc:	6963      	ldr	r3, [r4, #20]
  1008be:	681a      	ldr	r2, [r3, #0]
  1008c0:	2104      	movs	r1, #4
  1008c2:	438a      	bics	r2, r1
  1008c4:	601a      	str	r2, [r3, #0]
  1008c6:	bc10      	pop	{r4}
  1008c8:	bc01      	pop	{r0}
  1008ca:	4700      	bx	r0

001008cc <UDP_Connect>:
  1008cc:	b508      	push	{r3, lr}
  1008ce:	6803      	ldr	r3, [r0, #0]
  1008d0:	6818      	ldr	r0, [r3, #0]
  1008d2:	f7ff fcb5 	bl	100240 <BRD_ConnectPullUp>
  1008d6:	bc08      	pop	{r3}
  1008d8:	bc01      	pop	{r0}
  1008da:	4700      	bx	r0

001008dc <UDP_Init>:
  1008dc:	b5f8      	push	{r3, r4, r5, r6, r7, lr}
  1008de:	6803      	ldr	r3, [r0, #0]
  1008e0:	1c04      	adds	r4, r0, #0
  1008e2:	481f      	ldr	r0, [pc, #124]	; (100960 <UDP_Init+0x84>)
  1008e4:	681d      	ldr	r5, [r3, #0]
  1008e6:	f001 f921 	bl	101b2c <iprintf>
  1008ea:	68a1      	ldr	r1, [r4, #8]
  1008ec:	2900      	cmp	r1, #0
  1008ee:	d008      	beq.n	100902 <UDP_Init+0x26>
  1008f0:	6862      	ldr	r2, [r4, #4]
  1008f2:	2300      	movs	r3, #0
  1008f4:	321c      	adds	r2, #28
  1008f6:	2002      	movs	r0, #2
  1008f8:	3301      	adds	r3, #1
  1008fa:	6010      	str	r0, [r2, #0]
  1008fc:	3228      	adds	r2, #40	; 0x28
  1008fe:	428b      	cmp	r3, r1
  100900:	d1fa      	bne.n	1008f8 <UDP_Init+0x1c>
  100902:	1c28      	adds	r0, r5, #0
  100904:	f7ff fcac 	bl	100260 <BRD_ConfigurePullUp>
  100908:	1c20      	adds	r0, r4, #0
  10090a:	f7ff ffd1 	bl	1008b0 <UDP_Disconnect>
  10090e:	6963      	ldr	r3, [r4, #20]
  100910:	2701      	movs	r7, #1
  100912:	601f      	str	r7, [r3, #0]
  100914:	6823      	ldr	r3, [r4, #0]
  100916:	68db      	ldr	r3, [r3, #12]
  100918:	1c3a      	adds	r2, r7, #0
  10091a:	4e12      	ldr	r6, [pc, #72]	; (100964 <UDP_Init+0x88>)
  10091c:	409a      	lsls	r2, r3
  10091e:	6132      	str	r2, [r6, #16]
  100920:	2380      	movs	r3, #128	; 0x80
  100922:	696a      	ldr	r2, [r5, #20]
  100924:	009b      	lsls	r3, r3, #2
  100926:	4313      	orrs	r3, r2
  100928:	616b      	str	r3, [r5, #20]
  10092a:	1c20      	adds	r0, r4, #0
  10092c:	f7ff ffce 	bl	1008cc <UDP_Connect>
  100930:	6823      	ldr	r3, [r4, #0]
  100932:	681a      	ldr	r2, [r3, #0]
  100934:	2180      	movs	r1, #128	; 0x80
  100936:	6f50      	ldr	r0, [r2, #116]	; 0x74
  100938:	68db      	ldr	r3, [r3, #12]
  10093a:	0049      	lsls	r1, r1, #1
  10093c:	4301      	orrs	r1, r0
  10093e:	409f      	lsls	r7, r3
  100940:	6751      	str	r1, [r2, #116]	; 0x74
  100942:	1c20      	adds	r0, r4, #0
  100944:	6177      	str	r7, [r6, #20]
  100946:	f7ff ffb3 	bl	1008b0 <UDP_Disconnect>
  10094a:	68e3      	ldr	r3, [r4, #12]
  10094c:	681b      	ldr	r3, [r3, #0]
  10094e:	2b00      	cmp	r3, #0
  100950:	d002      	beq.n	100958 <UDP_Init+0x7c>
  100952:	1c20      	adds	r0, r4, #0
  100954:	f000 f808 	bl	100968 <UDP_Init+0x8c>
  100958:	bcf8      	pop	{r3, r4, r5, r6, r7}
  10095a:	bc01      	pop	{r0}
  10095c:	4700      	bx	r0
  10095e:	46c0      	nop			; (mov r8, r8)
  100960:	001047fc 	.word	0x001047fc
  100964:	fffffc00 	.word	0xfffffc00
  100968:	4718      	bx	r3
  10096a:	46c0      	nop			; (mov r8, r8)

0010096c <UDP_Stall>:
  10096c:	b538      	push	{r3, r4, r5, lr}
  10096e:	6882      	ldr	r2, [r0, #8]
  100970:	1c0c      	adds	r4, r1, #0
  100972:	1c05      	adds	r5, r0, #0
  100974:	6841      	ldr	r1, [r0, #4]
  100976:	2300      	movs	r3, #0
  100978:	42a2      	cmp	r2, r4
  10097a:	d903      	bls.n	100984 <UDP_Stall+0x18>
  10097c:	00a3      	lsls	r3, r4, #2
  10097e:	191b      	adds	r3, r3, r4
  100980:	00db      	lsls	r3, r3, #3
  100982:	18cb      	adds	r3, r1, r3
  100984:	6a5b      	ldr	r3, [r3, #36]	; 0x24
  100986:	2b01      	cmp	r3, #1
  100988:	d007      	beq.n	10099a <UDP_Stall+0x2e>
  10098a:	480e      	ldr	r0, [pc, #56]	; (1009c4 <UDP_Stall+0x58>)
  10098c:	1c21      	adds	r1, r4, #0
  10098e:	f001 f8cd 	bl	101b2c <iprintf>
  100992:	2001      	movs	r0, #1
  100994:	bc38      	pop	{r3, r4, r5}
  100996:	bc02      	pop	{r1}
  100998:	4708      	bx	r1
  10099a:	1c21      	adds	r1, r4, #0
  10099c:	480a      	ldr	r0, [pc, #40]	; (1009c8 <UDP_Stall+0x5c>)
  10099e:	f001 f8c5 	bl	101b2c <iprintf>
  1009a2:	682b      	ldr	r3, [r5, #0]
  1009a4:	340c      	adds	r4, #12
  1009a6:	681b      	ldr	r3, [r3, #0]
  1009a8:	00a4      	lsls	r4, r4, #2
  1009aa:	58e2      	ldr	r2, [r4, r3]
  1009ac:	2000      	movs	r0, #0
  1009ae:	0691      	lsls	r1, r2, #26
  1009b0:	d4f0      	bmi.n	100994 <UDP_Stall+0x28>
  1009b2:	2220      	movs	r2, #32
  1009b4:	58e1      	ldr	r1, [r4, r3]
  1009b6:	4311      	orrs	r1, r2
  1009b8:	50e1      	str	r1, [r4, r3]
  1009ba:	58e1      	ldr	r1, [r4, r3]
  1009bc:	420a      	tst	r2, r1
  1009be:	d0f9      	beq.n	1009b4 <UDP_Stall+0x48>
  1009c0:	2000      	movs	r0, #0
  1009c2:	e7e7      	b.n	100994 <UDP_Stall+0x28>
  1009c4:	00104808 	.word	0x00104808
  1009c8:	0010482c 	.word	0x0010482c

001009cc <UDP_DisableEndpoints>:
  1009cc:	b5f8      	push	{r3, r4, r5, r6, r7, lr}
  1009ce:	464f      	mov	r7, r9
  1009d0:	4646      	mov	r6, r8
  1009d2:	b4c0      	push	{r6, r7}
  1009d4:	6882      	ldr	r2, [r0, #8]
  1009d6:	1c06      	adds	r6, r0, #0
  1009d8:	2a01      	cmp	r2, #1
  1009da:	d934      	bls.n	100a46 <UDP_DisableEndpoints+0x7a>
  1009dc:	491d      	ldr	r1, [pc, #116]	; (100a54 <UDP_DisableEndpoints+0x88>)
  1009de:	2501      	movs	r5, #1
  1009e0:	2301      	movs	r3, #1
  1009e2:	2700      	movs	r7, #0
  1009e4:	4688      	mov	r8, r1
  1009e6:	46a9      	mov	r9, r5
  1009e8:	e006      	b.n	1009f8 <UDP_DisableEndpoints+0x2c>
  1009ea:	3501      	adds	r5, #1
  1009ec:	062d      	lsls	r5, r5, #24
  1009ee:	0e2d      	lsrs	r5, r5, #24
  1009f0:	6267      	str	r7, [r4, #36]	; 0x24
  1009f2:	1c2b      	adds	r3, r5, #0
  1009f4:	4295      	cmp	r5, r2
  1009f6:	d226      	bcs.n	100a46 <UDP_DisableEndpoints+0x7a>
  1009f8:	6871      	ldr	r1, [r6, #4]
  1009fa:	2400      	movs	r4, #0
  1009fc:	4293      	cmp	r3, r2
  1009fe:	d203      	bcs.n	100a08 <UDP_DisableEndpoints+0x3c>
  100a00:	009c      	lsls	r4, r3, #2
  100a02:	18e4      	adds	r4, r4, r3
  100a04:	00e4      	lsls	r4, r4, #3
  100a06:	190c      	adds	r4, r1, r4
  100a08:	6a63      	ldr	r3, [r4, #36]	; 0x24
  100a0a:	2b02      	cmp	r3, #2
  100a0c:	d002      	beq.n	100a14 <UDP_DisableEndpoints+0x48>
  100a0e:	6a63      	ldr	r3, [r4, #36]	; 0x24
  100a10:	2b03      	cmp	r3, #3
  100a12:	d1ea      	bne.n	1009ea <UDP_DisableEndpoints+0x1e>
  100a14:	4640      	mov	r0, r8
  100a16:	f001 f889 	bl	101b2c <iprintf>
  100a1a:	6921      	ldr	r1, [r4, #16]
  100a1c:	464b      	mov	r3, r9
  100a1e:	6263      	str	r3, [r4, #36]	; 0x24
  100a20:	468c      	mov	ip, r1
  100a22:	2900      	cmp	r1, #0
  100a24:	d007      	beq.n	100a36 <UDP_DisableEndpoints+0x6a>
  100a26:	68a1      	ldr	r1, [r4, #8]
  100a28:	6863      	ldr	r3, [r4, #4]
  100a2a:	6960      	ldr	r0, [r4, #20]
  100a2c:	18cb      	adds	r3, r1, r3
  100a2e:	68e2      	ldr	r2, [r4, #12]
  100a30:	2103      	movs	r1, #3
  100a32:	f000 f811 	bl	100a58 <UDP_DisableEndpoints+0x8c>
  100a36:	3501      	adds	r5, #1
  100a38:	68b2      	ldr	r2, [r6, #8]
  100a3a:	062d      	lsls	r5, r5, #24
  100a3c:	0e2d      	lsrs	r5, r5, #24
  100a3e:	6267      	str	r7, [r4, #36]	; 0x24
  100a40:	1c2b      	adds	r3, r5, #0
  100a42:	4295      	cmp	r5, r2
  100a44:	d3d8      	bcc.n	1009f8 <UDP_DisableEndpoints+0x2c>
  100a46:	bc0c      	pop	{r2, r3}
  100a48:	4690      	mov	r8, r2
  100a4a:	4699      	mov	r9, r3
  100a4c:	bcf8      	pop	{r3, r4, r5, r6, r7}
  100a4e:	bc01      	pop	{r0}
  100a50:	4700      	bx	r0
  100a52:	46c0      	nop			; (mov r8, r8)
  100a54:	00104838 	.word	0x00104838
  100a58:	4760      	bx	ip
  100a5a:	46c0      	nop			; (mov r8, r8)

00100a5c <UDP_SetConfiguration>:
  100a5c:	b570      	push	{r4, r5, r6, lr}
  100a5e:	6903      	ldr	r3, [r0, #16]
  100a60:	78de      	ldrb	r6, [r3, #3]
  100a62:	789a      	ldrb	r2, [r3, #2]
  100a64:	6803      	ldr	r3, [r0, #0]
  100a66:	1c04      	adds	r4, r0, #0
  100a68:	0236      	lsls	r6, r6, #8
  100a6a:	480f      	ldr	r0, [pc, #60]	; (100aa8 <UDP_SetConfiguration+0x4c>)
  100a6c:	681d      	ldr	r5, [r3, #0]
  100a6e:	4316      	orrs	r6, r2
  100a70:	f001 f85c 	bl	101b2c <iprintf>
  100a74:	6963      	ldr	r3, [r4, #20]
  100a76:	2e00      	cmp	r6, #0
  100a78:	d00a      	beq.n	100a90 <UDP_SetConfiguration+0x34>
  100a7a:	6819      	ldr	r1, [r3, #0]
  100a7c:	2210      	movs	r2, #16
  100a7e:	430a      	orrs	r2, r1
  100a80:	601a      	str	r2, [r3, #0]
  100a82:	686a      	ldr	r2, [r5, #4]
  100a84:	2302      	movs	r3, #2
  100a86:	4313      	orrs	r3, r2
  100a88:	606b      	str	r3, [r5, #4]
  100a8a:	bc70      	pop	{r4, r5, r6}
  100a8c:	bc01      	pop	{r0}
  100a8e:	4700      	bx	r0
  100a90:	681a      	ldr	r2, [r3, #0]
  100a92:	2110      	movs	r1, #16
  100a94:	438a      	bics	r2, r1
  100a96:	601a      	str	r2, [r3, #0]
  100a98:	686a      	ldr	r2, [r5, #4]
  100a9a:	2301      	movs	r3, #1
  100a9c:	4313      	orrs	r3, r2
  100a9e:	606b      	str	r3, [r5, #4]
  100aa0:	1c20      	adds	r0, r4, #0
  100aa2:	f7ff ff93 	bl	1009cc <UDP_DisableEndpoints>
  100aa6:	e7f0      	b.n	100a8a <UDP_SetConfiguration+0x2e>
  100aa8:	00104840 	.word	0x00104840

00100aac <UDP_Attach>:
  100aac:	b538      	push	{r3, r4, r5, lr}
  100aae:	6803      	ldr	r3, [r0, #0]
  100ab0:	1c04      	adds	r4, r0, #0
  100ab2:	484a      	ldr	r0, [pc, #296]	; (100bdc <UDP_Attach+0x130>)
  100ab4:	681d      	ldr	r5, [r3, #0]
  100ab6:	f001 f839 	bl	101b2c <iprintf>
  100aba:	6963      	ldr	r3, [r4, #20]
  100abc:	681a      	ldr	r2, [r3, #0]
  100abe:	0790      	lsls	r0, r2, #30
  100ac0:	d51a      	bpl.n	100af8 <UDP_Attach+0x4c>
  100ac2:	681a      	ldr	r2, [r3, #0]
  100ac4:	0791      	lsls	r1, r2, #30
  100ac6:	d410      	bmi.n	100aea <UDP_Attach+0x3e>
  100ac8:	6819      	ldr	r1, [r3, #0]
  100aca:	2502      	movs	r5, #2
  100acc:	4029      	ands	r1, r5
  100ace:	1e4b      	subs	r3, r1, #1
  100ad0:	4199      	sbcs	r1, r3
  100ad2:	4843      	ldr	r0, [pc, #268]	; (100be0 <UDP_Attach+0x134>)
  100ad4:	f001 f82a 	bl	101b2c <iprintf>
  100ad8:	6963      	ldr	r3, [r4, #20]
  100ada:	6818      	ldr	r0, [r3, #0]
  100adc:	4005      	ands	r5, r0
  100ade:	1c28      	adds	r0, r5, #0
  100ae0:	1e45      	subs	r5, r0, #1
  100ae2:	41a8      	sbcs	r0, r5
  100ae4:	bc38      	pop	{r3, r4, r5}
  100ae6:	bc02      	pop	{r1}
  100ae8:	4708      	bx	r1
  100aea:	1c28      	adds	r0, r5, #0
  100aec:	f7ff fba0 	bl	100230 <BRD_IsVBusConnected>
  100af0:	2800      	cmp	r0, #0
  100af2:	d037      	beq.n	100b64 <UDP_Attach+0xb8>
  100af4:	6963      	ldr	r3, [r4, #20]
  100af6:	e7e7      	b.n	100ac8 <UDP_Attach+0x1c>
  100af8:	1c28      	adds	r0, r5, #0
  100afa:	f7ff fb99 	bl	100230 <BRD_IsVBusConnected>
  100afe:	2800      	cmp	r0, #0
  100b00:	d02e      	beq.n	100b60 <UDP_Attach+0xb4>
  100b02:	68e3      	ldr	r3, [r4, #12]
  100b04:	68db      	ldr	r3, [r3, #12]
  100b06:	2b00      	cmp	r3, #0
  100b08:	d002      	beq.n	100b10 <UDP_Attach+0x64>
  100b0a:	1c20      	adds	r0, r4, #0
  100b0c:	f000 f86e 	bl	100bec <UDP_Attach+0x140>
  100b10:	6822      	ldr	r2, [r4, #0]
  100b12:	68d3      	ldr	r3, [r2, #12]
  100b14:	2101      	movs	r1, #1
  100b16:	4099      	lsls	r1, r3
  100b18:	4b32      	ldr	r3, [pc, #200]	; (100be4 <UDP_Attach+0x138>)
  100b1a:	6119      	str	r1, [r3, #16]
  100b1c:	6818      	ldr	r0, [r3, #0]
  100b1e:	6911      	ldr	r1, [r2, #16]
  100b20:	4301      	orrs	r1, r0
  100b22:	6019      	str	r1, [r3, #0]
  100b24:	6963      	ldr	r3, [r4, #20]
  100b26:	6819      	ldr	r1, [r3, #0]
  100b28:	00c8      	lsls	r0, r1, #3
  100b2a:	d509      	bpl.n	100b40 <UDP_Attach+0x94>
  100b2c:	6953      	ldr	r3, [r2, #20]
  100b2e:	1c20      	adds	r0, r4, #0
  100b30:	6adb      	ldr	r3, [r3, #44]	; 0x2c
  100b32:	f000 f85b 	bl	100bec <UDP_Attach+0x140>
  100b36:	6963      	ldr	r3, [r4, #20]
  100b38:	4a2b      	ldr	r2, [pc, #172]	; (100be8 <UDP_Attach+0x13c>)
  100b3a:	6819      	ldr	r1, [r3, #0]
  100b3c:	400a      	ands	r2, r1
  100b3e:	601a      	str	r2, [r3, #0]
  100b40:	6a29      	ldr	r1, [r5, #32]
  100b42:	228c      	movs	r2, #140	; 0x8c
  100b44:	0192      	lsls	r2, r2, #6
  100b46:	430a      	orrs	r2, r1
  100b48:	622a      	str	r2, [r5, #32]
  100b4a:	2280      	movs	r2, #128	; 0x80
  100b4c:	6929      	ldr	r1, [r5, #16]
  100b4e:	0052      	lsls	r2, r2, #1
  100b50:	430a      	orrs	r2, r1
  100b52:	612a      	str	r2, [r5, #16]
  100b54:	6819      	ldr	r1, [r3, #0]
  100b56:	2202      	movs	r2, #2
  100b58:	430a      	orrs	r2, r1
  100b5a:	601a      	str	r2, [r3, #0]
  100b5c:	6963      	ldr	r3, [r4, #20]
  100b5e:	e7b3      	b.n	100ac8 <UDP_Attach+0x1c>
  100b60:	6963      	ldr	r3, [r4, #20]
  100b62:	e7ae      	b.n	100ac2 <UDP_Attach+0x16>
  100b64:	6823      	ldr	r3, [r4, #0]
  100b66:	68db      	ldr	r3, [r3, #12]
  100b68:	2201      	movs	r2, #1
  100b6a:	409a      	lsls	r2, r3
  100b6c:	4b1d      	ldr	r3, [pc, #116]	; (100be4 <UDP_Attach+0x138>)
  100b6e:	611a      	str	r2, [r3, #16]
  100b70:	23ac      	movs	r3, #172	; 0xac
  100b72:	696a      	ldr	r2, [r5, #20]
  100b74:	019b      	lsls	r3, r3, #6
  100b76:	4313      	orrs	r3, r2
  100b78:	616b      	str	r3, [r5, #20]
  100b7a:	1c20      	adds	r0, r4, #0
  100b7c:	f7ff ff26 	bl	1009cc <UDP_DisableEndpoints>
  100b80:	6822      	ldr	r2, [r4, #0]
  100b82:	6813      	ldr	r3, [r2, #0]
  100b84:	2180      	movs	r1, #128	; 0x80
  100b86:	6f58      	ldr	r0, [r3, #116]	; 0x74
  100b88:	0049      	lsls	r1, r1, #1
  100b8a:	4301      	orrs	r1, r0
  100b8c:	6759      	str	r1, [r3, #116]	; 0x74
  100b8e:	6963      	ldr	r3, [r4, #20]
  100b90:	6819      	ldr	r1, [r3, #0]
  100b92:	0748      	lsls	r0, r1, #29
  100b94:	d415      	bmi.n	100bc2 <UDP_Attach+0x116>
  100b96:	68d1      	ldr	r1, [r2, #12]
  100b98:	2001      	movs	r0, #1
  100b9a:	4088      	lsls	r0, r1
  100b9c:	4911      	ldr	r1, [pc, #68]	; (100be4 <UDP_Attach+0x138>)
  100b9e:	6148      	str	r0, [r1, #20]
  100ba0:	6848      	ldr	r0, [r1, #4]
  100ba2:	6912      	ldr	r2, [r2, #16]
  100ba4:	4302      	orrs	r2, r0
  100ba6:	604a      	str	r2, [r1, #4]
  100ba8:	681a      	ldr	r2, [r3, #0]
  100baa:	213e      	movs	r1, #62	; 0x3e
  100bac:	438a      	bics	r2, r1
  100bae:	601a      	str	r2, [r3, #0]
  100bb0:	68e3      	ldr	r3, [r4, #12]
  100bb2:	689b      	ldr	r3, [r3, #8]
  100bb4:	2b00      	cmp	r3, #0
  100bb6:	d09d      	beq.n	100af4 <UDP_Attach+0x48>
  100bb8:	1c20      	adds	r0, r4, #0
  100bba:	f000 f817 	bl	100bec <UDP_Attach+0x140>
  100bbe:	6963      	ldr	r3, [r4, #20]
  100bc0:	e782      	b.n	100ac8 <UDP_Attach+0x1c>
  100bc2:	6953      	ldr	r3, [r2, #20]
  100bc4:	1c20      	adds	r0, r4, #0
  100bc6:	6b1b      	ldr	r3, [r3, #48]	; 0x30
  100bc8:	f000 f810 	bl	100bec <UDP_Attach+0x140>
  100bcc:	6963      	ldr	r3, [r4, #20]
  100bce:	2280      	movs	r2, #128	; 0x80
  100bd0:	6819      	ldr	r1, [r3, #0]
  100bd2:	0552      	lsls	r2, r2, #21
  100bd4:	430a      	orrs	r2, r1
  100bd6:	601a      	str	r2, [r3, #0]
  100bd8:	6822      	ldr	r2, [r4, #0]
  100bda:	e7dc      	b.n	100b96 <UDP_Attach+0xea>
  100bdc:	0010484c 	.word	0x0010484c
  100be0:	001047f4 	.word	0x001047f4
  100be4:	fffffc00 	.word	0xfffffc00
  100be8:	efffffff 	.word	0xefffffff
  100bec:	4718      	bx	r3
  100bee:	46c0      	nop			; (mov r8, r8)

00100bf0 <UDP_ConfigureEndpoint>:
  100bf0:	b5f8      	push	{r3, r4, r5, r6, r7, lr}
  100bf2:	464f      	mov	r7, r9
  100bf4:	4646      	mov	r6, r8
  100bf6:	b4c0      	push	{r6, r7}
  100bf8:	6803      	ldr	r3, [r0, #0]
  100bfa:	1c06      	adds	r6, r0, #0
  100bfc:	681d      	ldr	r5, [r3, #0]
  100bfe:	2900      	cmp	r1, #0
  100c00:	d100      	bne.n	100c04 <UDP_ConfigureEndpoint+0x14>
  100c02:	e073      	b.n	100cec <UDP_ConfigureEndpoint+0xfc>
  100c04:	78ca      	ldrb	r2, [r1, #3]
  100c06:	788b      	ldrb	r3, [r1, #2]
  100c08:	2003      	movs	r0, #3
  100c0a:	2707      	movs	r7, #7
  100c0c:	4010      	ands	r0, r2
  100c0e:	401f      	ands	r7, r3
  100c10:	4680      	mov	r8, r0
  100c12:	061b      	lsls	r3, r3, #24
  100c14:	d466      	bmi.n	100ce4 <UDP_ConfigureEndpoint+0xf4>
  100c16:	2200      	movs	r2, #0
  100c18:	1c3b      	adds	r3, r7, #0
  100c1a:	4691      	mov	r9, r2
  100c1c:	68b2      	ldr	r2, [r6, #8]
  100c1e:	6874      	ldr	r4, [r6, #4]
  100c20:	2000      	movs	r0, #0
  100c22:	429a      	cmp	r2, r3
  100c24:	d93c      	bls.n	100ca0 <UDP_ConfigureEndpoint+0xb0>
  100c26:	009a      	lsls	r2, r3, #2
  100c28:	18d3      	adds	r3, r2, r3
  100c2a:	00db      	lsls	r3, r3, #3
  100c2c:	18e4      	adds	r4, r4, r3
  100c2e:	2c00      	cmp	r4, #0
  100c30:	d036      	beq.n	100ca0 <UDP_ConfigureEndpoint+0xb0>
  100c32:	2900      	cmp	r1, #0
  100c34:	d060      	beq.n	100cf8 <UDP_ConfigureEndpoint+0x108>
  100c36:	794b      	ldrb	r3, [r1, #5]
  100c38:	790a      	ldrb	r2, [r1, #4]
  100c3a:	021b      	lsls	r3, r3, #8
  100c3c:	4313      	orrs	r3, r2
  100c3e:	61a3      	str	r3, [r4, #24]
  100c40:	6a63      	ldr	r3, [r4, #36]	; 0x24
  100c42:	2b03      	cmp	r3, #3
  100c44:	d036      	beq.n	100cb4 <UDP_ConfigureEndpoint+0xc4>
  100c46:	6a63      	ldr	r3, [r4, #36]	; 0x24
  100c48:	2b02      	cmp	r3, #2
  100c4a:	d033      	beq.n	100cb4 <UDP_ConfigureEndpoint+0xc4>
  100c4c:	2301      	movs	r3, #1
  100c4e:	6263      	str	r3, [r4, #36]	; 0x24
  100c50:	6aaa      	ldr	r2, [r5, #40]	; 0x28
  100c52:	40bb      	lsls	r3, r7
  100c54:	431a      	orrs	r2, r3
  100c56:	62aa      	str	r2, [r5, #40]	; 0x28
  100c58:	6aaa      	ldr	r2, [r5, #40]	; 0x28
  100c5a:	4641      	mov	r1, r8
  100c5c:	439a      	bics	r2, r3
  100c5e:	2480      	movs	r4, #128	; 0x80
  100c60:	62aa      	str	r2, [r5, #40]	; 0x28
  100c62:	0224      	lsls	r4, r4, #8
  100c64:	020a      	lsls	r2, r1, #8
  100c66:	4314      	orrs	r4, r2
  100c68:	464a      	mov	r2, r9
  100c6a:	2a00      	cmp	r2, #0
  100c6c:	d002      	beq.n	100c74 <UDP_ConfigureEndpoint+0x84>
  100c6e:	2280      	movs	r2, #128	; 0x80
  100c70:	00d2      	lsls	r2, r2, #3
  100c72:	4314      	orrs	r4, r2
  100c74:	4641      	mov	r1, r8
  100c76:	2900      	cmp	r1, #0
  100c78:	d018      	beq.n	100cac <UDP_ConfigureEndpoint+0xbc>
  100c7a:	1c39      	adds	r1, r7, #0
  100c7c:	4820      	ldr	r0, [pc, #128]	; (100d00 <UDP_ConfigureEndpoint+0x110>)
  100c7e:	f000 ff55 	bl	101b2c <iprintf>
  100c82:	6833      	ldr	r3, [r6, #0]
  100c84:	370c      	adds	r7, #12
  100c86:	681b      	ldr	r3, [r3, #0]
  100c88:	00bf      	lsls	r7, r7, #2
  100c8a:	58fa      	ldr	r2, [r7, r3]
  100c8c:	2001      	movs	r0, #1
  100c8e:	4222      	tst	r2, r4
  100c90:	d106      	bne.n	100ca0 <UDP_ConfigureEndpoint+0xb0>
  100c92:	58fa      	ldr	r2, [r7, r3]
  100c94:	4322      	orrs	r2, r4
  100c96:	50fa      	str	r2, [r7, r3]
  100c98:	58fa      	ldr	r2, [r7, r3]
  100c9a:	4222      	tst	r2, r4
  100c9c:	d0f9      	beq.n	100c92 <UDP_ConfigureEndpoint+0xa2>
  100c9e:	2001      	movs	r0, #1
  100ca0:	bc0c      	pop	{r2, r3}
  100ca2:	4690      	mov	r8, r2
  100ca4:	4699      	mov	r9, r3
  100ca6:	bcf8      	pop	{r3, r4, r5, r6, r7}
  100ca8:	bc02      	pop	{r1}
  100caa:	4708      	bx	r1
  100cac:	692a      	ldr	r2, [r5, #16]
  100cae:	4313      	orrs	r3, r2
  100cb0:	612b      	str	r3, [r5, #16]
  100cb2:	e7e2      	b.n	100c7a <UDP_ConfigureEndpoint+0x8a>
  100cb4:	6a63      	ldr	r3, [r4, #36]	; 0x24
  100cb6:	2b02      	cmp	r3, #2
  100cb8:	d002      	beq.n	100cc0 <UDP_ConfigureEndpoint+0xd0>
  100cba:	6a63      	ldr	r3, [r4, #36]	; 0x24
  100cbc:	2b03      	cmp	r3, #3
  100cbe:	d1c5      	bne.n	100c4c <UDP_ConfigureEndpoint+0x5c>
  100cc0:	4810      	ldr	r0, [pc, #64]	; (100d04 <UDP_ConfigureEndpoint+0x114>)
  100cc2:	f000 ff33 	bl	101b2c <iprintf>
  100cc6:	2301      	movs	r3, #1
  100cc8:	6263      	str	r3, [r4, #36]	; 0x24
  100cca:	6923      	ldr	r3, [r4, #16]
  100ccc:	469c      	mov	ip, r3
  100cce:	2b00      	cmp	r3, #0
  100cd0:	d0bc      	beq.n	100c4c <UDP_ConfigureEndpoint+0x5c>
  100cd2:	68a1      	ldr	r1, [r4, #8]
  100cd4:	6863      	ldr	r3, [r4, #4]
  100cd6:	6960      	ldr	r0, [r4, #20]
  100cd8:	18cb      	adds	r3, r1, r3
  100cda:	68e2      	ldr	r2, [r4, #12]
  100cdc:	2103      	movs	r1, #3
  100cde:	f000 f813 	bl	100d08 <UDP_ConfigureEndpoint+0x118>
  100ce2:	e7b3      	b.n	100c4c <UDP_ConfigureEndpoint+0x5c>
  100ce4:	2201      	movs	r2, #1
  100ce6:	1c3b      	adds	r3, r7, #0
  100ce8:	4691      	mov	r9, r2
  100cea:	e797      	b.n	100c1c <UDP_ConfigureEndpoint+0x2c>
  100cec:	2300      	movs	r3, #0
  100cee:	2200      	movs	r2, #0
  100cf0:	4699      	mov	r9, r3
  100cf2:	4690      	mov	r8, r2
  100cf4:	2700      	movs	r7, #0
  100cf6:	e791      	b.n	100c1c <UDP_ConfigureEndpoint+0x2c>
  100cf8:	2308      	movs	r3, #8
  100cfa:	61a3      	str	r3, [r4, #24]
  100cfc:	e7a0      	b.n	100c40 <UDP_ConfigureEndpoint+0x50>
  100cfe:	46c0      	nop			; (mov r8, r8)
  100d00:	00104854 	.word	0x00104854
  100d04:	00104838 	.word	0x00104838
  100d08:	4760      	bx	ip
  100d0a:	46c0      	nop			; (mov r8, r8)

00100d0c <UDP_Halt>:
  100d0c:	b5f0      	push	{r4, r5, r6, r7, lr}
  100d0e:	4647      	mov	r7, r8
  100d10:	b480      	push	{r7}
  100d12:	6803      	ldr	r3, [r0, #0]
  100d14:	1c04      	adds	r4, r0, #0
  100d16:	6818      	ldr	r0, [r3, #0]
  100d18:	68a3      	ldr	r3, [r4, #8]
  100d1a:	1c17      	adds	r7, r2, #0
  100d1c:	1c0e      	adds	r6, r1, #0
  100d1e:	4680      	mov	r8, r0
  100d20:	6862      	ldr	r2, [r4, #4]
  100d22:	2500      	movs	r5, #0
  100d24:	428b      	cmp	r3, r1
  100d26:	d903      	bls.n	100d30 <UDP_Halt+0x24>
  100d28:	008d      	lsls	r5, r1, #2
  100d2a:	186d      	adds	r5, r5, r1
  100d2c:	00ed      	lsls	r5, r5, #3
  100d2e:	1955      	adds	r5, r2, r5
  100d30:	2f01      	cmp	r7, #1
  100d32:	d034      	beq.n	100d9e <UDP_Halt+0x92>
  100d34:	2f03      	cmp	r7, #3
  100d36:	d008      	beq.n	100d4a <UDP_Halt+0x3e>
  100d38:	6a68      	ldr	r0, [r5, #36]	; 0x24
  100d3a:	3804      	subs	r0, #4
  100d3c:	4243      	negs	r3, r0
  100d3e:	4158      	adcs	r0, r3
  100d40:	bc04      	pop	{r2}
  100d42:	4690      	mov	r8, r2
  100d44:	bcf0      	pop	{r4, r5, r6, r7}
  100d46:	bc02      	pop	{r1}
  100d48:	4708      	bx	r1
  100d4a:	6a6b      	ldr	r3, [r5, #36]	; 0x24
  100d4c:	2b04      	cmp	r3, #4
  100d4e:	d0f3      	beq.n	100d38 <UDP_Halt+0x2c>
  100d50:	6a6b      	ldr	r3, [r5, #36]	; 0x24
  100d52:	2b00      	cmp	r3, #0
  100d54:	d0f0      	beq.n	100d38 <UDP_Halt+0x2c>
  100d56:	482b      	ldr	r0, [pc, #172]	; (100e04 <UDP_Halt+0xf8>)
  100d58:	1c31      	adds	r1, r6, #0
  100d5a:	f000 fee7 	bl	101b2c <iprintf>
  100d5e:	6a6b      	ldr	r3, [r5, #36]	; 0x24
  100d60:	2b02      	cmp	r3, #2
  100d62:	d03e      	beq.n	100de2 <UDP_Halt+0xd6>
  100d64:	6a6b      	ldr	r3, [r5, #36]	; 0x24
  100d66:	2b03      	cmp	r3, #3
  100d68:	d03b      	beq.n	100de2 <UDP_Halt+0xd6>
  100d6a:	6823      	ldr	r3, [r4, #0]
  100d6c:	1c32      	adds	r2, r6, #0
  100d6e:	681b      	ldr	r3, [r3, #0]
  100d70:	320c      	adds	r2, #12
  100d72:	0092      	lsls	r2, r2, #2
  100d74:	58d1      	ldr	r1, [r2, r3]
  100d76:	0688      	lsls	r0, r1, #26
  100d78:	d406      	bmi.n	100d88 <UDP_Halt+0x7c>
  100d7a:	2120      	movs	r1, #32
  100d7c:	58d0      	ldr	r0, [r2, r3]
  100d7e:	4308      	orrs	r0, r1
  100d80:	50d0      	str	r0, [r2, r3]
  100d82:	58d0      	ldr	r0, [r2, r3]
  100d84:	4201      	tst	r1, r0
  100d86:	d0f9      	beq.n	100d7c <UDP_Halt+0x70>
  100d88:	2304      	movs	r3, #4
  100d8a:	626b      	str	r3, [r5, #36]	; 0x24
  100d8c:	4642      	mov	r2, r8
  100d8e:	6913      	ldr	r3, [r2, #16]
  100d90:	2201      	movs	r2, #1
  100d92:	40b2      	lsls	r2, r6
  100d94:	1c16      	adds	r6, r2, #0
  100d96:	431e      	orrs	r6, r3
  100d98:	4643      	mov	r3, r8
  100d9a:	611e      	str	r6, [r3, #16]
  100d9c:	e7cc      	b.n	100d38 <UDP_Halt+0x2c>
  100d9e:	6a6b      	ldr	r3, [r5, #36]	; 0x24
  100da0:	2b04      	cmp	r3, #4
  100da2:	d1c9      	bne.n	100d38 <UDP_Halt+0x2c>
  100da4:	1c31      	adds	r1, r6, #0
  100da6:	4818      	ldr	r0, [pc, #96]	; (100e08 <UDP_Halt+0xfc>)
  100da8:	f000 fec0 	bl	101b2c <iprintf>
  100dac:	626f      	str	r7, [r5, #36]	; 0x24
  100dae:	6823      	ldr	r3, [r4, #0]
  100db0:	1c32      	adds	r2, r6, #0
  100db2:	681b      	ldr	r3, [r3, #0]
  100db4:	320c      	adds	r2, #12
  100db6:	0092      	lsls	r2, r2, #2
  100db8:	58d1      	ldr	r1, [r2, r3]
  100dba:	0688      	lsls	r0, r1, #26
  100dbc:	d506      	bpl.n	100dcc <UDP_Halt+0xc0>
  100dbe:	2120      	movs	r1, #32
  100dc0:	58d0      	ldr	r0, [r2, r3]
  100dc2:	4388      	bics	r0, r1
  100dc4:	50d0      	str	r0, [r2, r3]
  100dc6:	58d0      	ldr	r0, [r2, r3]
  100dc8:	4201      	tst	r1, r0
  100dca:	d1f9      	bne.n	100dc0 <UDP_Halt+0xb4>
  100dcc:	4642      	mov	r2, r8
  100dce:	6a93      	ldr	r3, [r2, #40]	; 0x28
  100dd0:	2201      	movs	r2, #1
  100dd2:	40b2      	lsls	r2, r6
  100dd4:	4640      	mov	r0, r8
  100dd6:	4313      	orrs	r3, r2
  100dd8:	6283      	str	r3, [r0, #40]	; 0x28
  100dda:	6a83      	ldr	r3, [r0, #40]	; 0x28
  100ddc:	4393      	bics	r3, r2
  100dde:	6283      	str	r3, [r0, #40]	; 0x28
  100de0:	e7aa      	b.n	100d38 <UDP_Halt+0x2c>
  100de2:	480a      	ldr	r0, [pc, #40]	; (100e0c <UDP_Halt+0x100>)
  100de4:	f000 fea2 	bl	101b2c <iprintf>
  100de8:	692f      	ldr	r7, [r5, #16]
  100dea:	2301      	movs	r3, #1
  100dec:	626b      	str	r3, [r5, #36]	; 0x24
  100dee:	2f00      	cmp	r7, #0
  100df0:	d0bb      	beq.n	100d6a <UDP_Halt+0x5e>
  100df2:	68a9      	ldr	r1, [r5, #8]
  100df4:	686b      	ldr	r3, [r5, #4]
  100df6:	6968      	ldr	r0, [r5, #20]
  100df8:	18cb      	adds	r3, r1, r3
  100dfa:	68ea      	ldr	r2, [r5, #12]
  100dfc:	2102      	movs	r1, #2
  100dfe:	f000 f807 	bl	100e10 <UDP_Halt+0x104>
  100e02:	e7b2      	b.n	100d6a <UDP_Halt+0x5e>
  100e04:	0010486c 	.word	0x0010486c
  100e08:	00104860 	.word	0x00104860
  100e0c:	00104838 	.word	0x00104838
  100e10:	4738      	bx	r7
  100e12:	46c0      	nop			; (mov r8, r8)

00100e14 <UDP_Handler>:
  100e14:	b5f0      	push	{r4, r5, r6, r7, lr}
  100e16:	465f      	mov	r7, fp
  100e18:	4656      	mov	r6, sl
  100e1a:	464d      	mov	r5, r9
  100e1c:	4644      	mov	r4, r8
  100e1e:	b4f0      	push	{r4, r5, r6, r7}
  100e20:	6803      	ldr	r3, [r0, #0]
  100e22:	1c04      	adds	r4, r0, #0
  100e24:	6818      	ldr	r0, [r3, #0]
  100e26:	6963      	ldr	r3, [r4, #20]
  100e28:	681a      	ldr	r2, [r3, #0]
  100e2a:	b087      	sub	sp, #28
  100e2c:	4681      	mov	r9, r0
  100e2e:	0691      	lsls	r1, r2, #26
  100e30:	d404      	bmi.n	100e3c <UDP_Handler+0x28>
  100e32:	681a      	ldr	r2, [r3, #0]
  100e34:	2302      	movs	r3, #2
  100e36:	4213      	tst	r3, r2
  100e38:	d000      	beq.n	100e3c <UDP_Handler+0x28>
  100e3a:	e32d      	b.n	101498 <UDP_Handler+0x684>
  100e3c:	48b4      	ldr	r0, [pc, #720]	; (101110 <UDP_Handler+0x2fc>)
  100e3e:	f000 fe75 	bl	101b2c <iprintf>
  100e42:	464a      	mov	r2, r9
  100e44:	69d3      	ldr	r3, [r2, #28]
  100e46:	6995      	ldr	r5, [r2, #24]
  100e48:	401d      	ands	r5, r3
  100e4a:	04ad      	lsls	r5, r5, #18
  100e4c:	0cad      	lsrs	r5, r5, #18
  100e4e:	d04f      	beq.n	100ef0 <UDP_Handler+0xdc>
  100e50:	2380      	movs	r3, #128	; 0x80
  100e52:	011b      	lsls	r3, r3, #4
  100e54:	421d      	tst	r5, r3
  100e56:	d000      	beq.n	100e5a <UDP_Handler+0x46>
  100e58:	e17e      	b.n	101158 <UDP_Handler+0x344>
  100e5a:	2380      	movs	r3, #128	; 0x80
  100e5c:	005b      	lsls	r3, r3, #1
  100e5e:	429d      	cmp	r5, r3
  100e60:	d100      	bne.n	100e64 <UDP_Handler+0x50>
  100e62:	e18e      	b.n	101182 <UDP_Handler+0x36e>
  100e64:	2388      	movs	r3, #136	; 0x88
  100e66:	019b      	lsls	r3, r3, #6
  100e68:	421d      	tst	r5, r3
  100e6a:	d059      	beq.n	100f20 <UDP_Handler+0x10c>
  100e6c:	68e3      	ldr	r3, [r4, #12]
  100e6e:	68db      	ldr	r3, [r3, #12]
  100e70:	2b00      	cmp	r3, #0
  100e72:	d002      	beq.n	100e7a <UDP_Handler+0x66>
  100e74:	1c20      	adds	r0, r4, #0
  100e76:	f000 fb4a 	bl	10150e <UDP_Handler+0x6fa>
  100e7a:	48a6      	ldr	r0, [pc, #664]	; (101114 <UDP_Handler+0x300>)
  100e7c:	f000 fe56 	bl	101b2c <iprintf>
  100e80:	6963      	ldr	r3, [r4, #20]
  100e82:	681a      	ldr	r2, [r3, #0]
  100e84:	0690      	lsls	r0, r2, #26
  100e86:	d516      	bpl.n	100eb6 <UDP_Handler+0xa2>
  100e88:	6821      	ldr	r1, [r4, #0]
  100e8a:	68ca      	ldr	r2, [r1, #12]
  100e8c:	2001      	movs	r0, #1
  100e8e:	4090      	lsls	r0, r2
  100e90:	4aa1      	ldr	r2, [pc, #644]	; (101118 <UDP_Handler+0x304>)
  100e92:	6110      	str	r0, [r2, #16]
  100e94:	6815      	ldr	r5, [r2, #0]
  100e96:	6908      	ldr	r0, [r1, #16]
  100e98:	4328      	orrs	r0, r5
  100e9a:	6010      	str	r0, [r2, #0]
  100e9c:	681a      	ldr	r2, [r3, #0]
  100e9e:	0755      	lsls	r5, r2, #29
  100ea0:	d504      	bpl.n	100eac <UDP_Handler+0x98>
  100ea2:	680a      	ldr	r2, [r1, #0]
  100ea4:	499d      	ldr	r1, [pc, #628]	; (10111c <UDP_Handler+0x308>)
  100ea6:	6f50      	ldr	r0, [r2, #116]	; 0x74
  100ea8:	4001      	ands	r1, r0
  100eaa:	6751      	str	r1, [r2, #116]	; 0x74
  100eac:	681a      	ldr	r2, [r3, #0]
  100eae:	2120      	movs	r1, #32
  100eb0:	438a      	bics	r2, r1
  100eb2:	601a      	str	r2, [r3, #0]
  100eb4:	6963      	ldr	r3, [r4, #20]
  100eb6:	464e      	mov	r6, r9
  100eb8:	6a31      	ldr	r1, [r6, #32]
  100eba:	228c      	movs	r2, #140	; 0x8c
  100ebc:	0192      	lsls	r2, r2, #6
  100ebe:	430a      	orrs	r2, r1
  100ec0:	6232      	str	r2, [r6, #32]
  100ec2:	2288      	movs	r2, #136	; 0x88
  100ec4:	6971      	ldr	r1, [r6, #20]
  100ec6:	0192      	lsls	r2, r2, #6
  100ec8:	430a      	orrs	r2, r1
  100eca:	6172      	str	r2, [r6, #20]
  100ecc:	464d      	mov	r5, r9
  100ece:	69ea      	ldr	r2, [r5, #28]
  100ed0:	69ad      	ldr	r5, [r5, #24]
  100ed2:	681b      	ldr	r3, [r3, #0]
  100ed4:	4015      	ands	r5, r2
  100ed6:	04ad      	lsls	r5, r5, #18
  100ed8:	0cad      	lsrs	r5, r5, #18
  100eda:	075e      	lsls	r6, r3, #29
  100edc:	d402      	bmi.n	100ee4 <UDP_Handler+0xd0>
  100ede:	23c0      	movs	r3, #192	; 0xc0
  100ee0:	015b      	lsls	r3, r3, #5
  100ee2:	401d      	ands	r5, r3
  100ee4:	488e      	ldr	r0, [pc, #568]	; (101120 <UDP_Handler+0x30c>)
  100ee6:	f000 fe21 	bl	101b2c <iprintf>
  100eea:	2d00      	cmp	r5, #0
  100eec:	d000      	beq.n	100ef0 <UDP_Handler+0xdc>
  100eee:	e12b      	b.n	101148 <UDP_Handler+0x334>
  100ef0:	6963      	ldr	r3, [r4, #20]
  100ef2:	681a      	ldr	r2, [r3, #0]
  100ef4:	0690      	lsls	r0, r2, #26
  100ef6:	d40a      	bmi.n	100f0e <UDP_Handler+0xfa>
  100ef8:	681a      	ldr	r2, [r3, #0]
  100efa:	2302      	movs	r3, #2
  100efc:	4213      	tst	r3, r2
  100efe:	d006      	beq.n	100f0e <UDP_Handler+0xfa>
  100f00:	4a88      	ldr	r2, [pc, #544]	; (101124 <UDP_Handler+0x310>)
  100f02:	6bd1      	ldr	r1, [r2, #60]	; 0x3c
  100f04:	4019      	ands	r1, r3
  100f06:	2902      	cmp	r1, #2
  100f08:	d100      	bne.n	100f0c <UDP_Handler+0xf8>
  100f0a:	e2fa      	b.n	101502 <UDP_Handler+0x6ee>
  100f0c:	6313      	str	r3, [r2, #48]	; 0x30
  100f0e:	b007      	add	sp, #28
  100f10:	bc3c      	pop	{r2, r3, r4, r5}
  100f12:	4690      	mov	r8, r2
  100f14:	4699      	mov	r9, r3
  100f16:	46a2      	mov	sl, r4
  100f18:	46ab      	mov	fp, r5
  100f1a:	bcf0      	pop	{r4, r5, r6, r7}
  100f1c:	bc01      	pop	{r0}
  100f1e:	4700      	bx	r0
  100f20:	04e8      	lsls	r0, r5, #19
  100f22:	d500      	bpl.n	100f26 <UDP_Handler+0x112>
  100f24:	e1ca      	b.n	1012bc <UDP_Handler+0x4a8>
  100f26:	2d00      	cmp	r5, #0
  100f28:	d100      	bne.n	100f2c <UDP_Handler+0x118>
  100f2a:	e0ef      	b.n	10110c <UDP_Handler+0x2f8>
  100f2c:	46a8      	mov	r8, r5
  100f2e:	46cb      	mov	fp, r9
  100f30:	e04d      	b.n	100fce <UDP_Handler+0x1ba>
  100f32:	0a03      	lsrs	r3, r0, #8
  100f34:	2507      	movs	r5, #7
  100f36:	22f0      	movs	r2, #240	; 0xf0
  100f38:	421a      	tst	r2, r3
  100f3a:	d003      	beq.n	100f44 <UDP_Handler+0x130>
  100f3c:	3504      	adds	r5, #4
  100f3e:	062d      	lsls	r5, r5, #24
  100f40:	0e2d      	lsrs	r5, r5, #24
  100f42:	091b      	lsrs	r3, r3, #4
  100f44:	220c      	movs	r2, #12
  100f46:	421a      	tst	r2, r3
  100f48:	d003      	beq.n	100f52 <UDP_Handler+0x13e>
  100f4a:	3502      	adds	r5, #2
  100f4c:	062d      	lsls	r5, r5, #24
  100f4e:	0e2d      	lsrs	r5, r5, #24
  100f50:	089b      	lsrs	r3, r3, #2
  100f52:	079a      	lsls	r2, r3, #30
  100f54:	d503      	bpl.n	100f5e <UDP_Handler+0x14a>
  100f56:	3501      	adds	r5, #1
  100f58:	062d      	lsls	r5, r5, #24
  100f5a:	0e2d      	lsrs	r5, r5, #24
  100f5c:	085b      	lsrs	r3, r3, #1
  100f5e:	07de      	lsls	r6, r3, #31
  100f60:	d502      	bpl.n	100f68 <UDP_Handler+0x154>
  100f62:	3501      	adds	r5, #1
  100f64:	062d      	lsls	r5, r5, #24
  100f66:	0e2d      	lsrs	r5, r5, #24
  100f68:	68a3      	ldr	r3, [r4, #8]
  100f6a:	6862      	ldr	r2, [r4, #4]
  100f6c:	2600      	movs	r6, #0
  100f6e:	42ab      	cmp	r3, r5
  100f70:	d903      	bls.n	100f7a <UDP_Handler+0x166>
  100f72:	00ae      	lsls	r6, r5, #2
  100f74:	1976      	adds	r6, r6, r5
  100f76:	00f6      	lsls	r6, r6, #3
  100f78:	1996      	adds	r6, r2, r6
  100f7a:	6823      	ldr	r3, [r4, #0]
  100f7c:	681b      	ldr	r3, [r3, #0]
  100f7e:	200c      	movs	r0, #12
  100f80:	9302      	str	r3, [sp, #8]
  100f82:	1940      	adds	r0, r0, r5
  100f84:	9902      	ldr	r1, [sp, #8]
  100f86:	0083      	lsls	r3, r0, #2
  100f88:	585f      	ldr	r7, [r3, r1]
  100f8a:	4681      	mov	r9, r0
  100f8c:	1c29      	adds	r1, r5, #0
  100f8e:	4866      	ldr	r0, [pc, #408]	; (101128 <UDP_Handler+0x314>)
  100f90:	f000 fdcc 	bl	101b2c <iprintf>
  100f94:	2201      	movs	r2, #1
  100f96:	4692      	mov	sl, r2
  100f98:	1c13      	adds	r3, r2, #0
  100f9a:	423a      	tst	r2, r7
  100f9c:	d000      	beq.n	100fa0 <UDP_Handler+0x18c>
  100f9e:	e083      	b.n	1010a8 <UDP_Handler+0x294>
  100fa0:	40ab      	lsls	r3, r5
  100fa2:	469a      	mov	sl, r3
  100fa4:	2342      	movs	r3, #66	; 0x42
  100fa6:	423b      	tst	r3, r7
  100fa8:	d168      	bne.n	10107c <UDP_Handler+0x268>
  100faa:	0779      	lsls	r1, r7, #29
  100fac:	d438      	bmi.n	101020 <UDP_Handler+0x20c>
  100fae:	2508      	movs	r5, #8
  100fb0:	423d      	tst	r5, r7
  100fb2:	d114      	bne.n	100fde <UDP_Handler+0x1ca>
  100fb4:	464e      	mov	r6, r9
  100fb6:	00b3      	lsls	r3, r6, #2
  100fb8:	4658      	mov	r0, fp
  100fba:	581a      	ldr	r2, [r3, r0]
  100fbc:	214f      	movs	r1, #79	; 0x4f
  100fbe:	438a      	bics	r2, r1
  100fc0:	501a      	str	r2, [r3, r0]
  100fc2:	4641      	mov	r1, r8
  100fc4:	4652      	mov	r2, sl
  100fc6:	4391      	bics	r1, r2
  100fc8:	4688      	mov	r8, r1
  100fca:	d100      	bne.n	100fce <UDP_Handler+0x1ba>
  100fcc:	e09d      	b.n	10110a <UDP_Handler+0x2f6>
  100fce:	21ff      	movs	r1, #255	; 0xff
  100fd0:	4640      	mov	r0, r8
  100fd2:	0209      	lsls	r1, r1, #8
  100fd4:	4208      	tst	r0, r1
  100fd6:	d1ac      	bne.n	100f32 <UDP_Handler+0x11e>
  100fd8:	4643      	mov	r3, r8
  100fda:	25ff      	movs	r5, #255	; 0xff
  100fdc:	e7ab      	b.n	100f36 <UDP_Handler+0x122>
  100fde:	4853      	ldr	r0, [pc, #332]	; (10112c <UDP_Handler+0x318>)
  100fe0:	f000 fda4 	bl	101b2c <iprintf>
  100fe4:	6823      	ldr	r3, [r4, #0]
  100fe6:	4648      	mov	r0, r9
  100fe8:	681b      	ldr	r3, [r3, #0]
  100fea:	0082      	lsls	r2, r0, #2
  100fec:	58d1      	ldr	r1, [r2, r3]
  100fee:	420d      	tst	r5, r1
  100ff0:	d006      	beq.n	101000 <UDP_Handler+0x1ec>
  100ff2:	2108      	movs	r1, #8
  100ff4:	58d0      	ldr	r0, [r2, r3]
  100ff6:	4388      	bics	r0, r1
  100ff8:	50d0      	str	r0, [r2, r3]
  100ffa:	58d0      	ldr	r0, [r2, r3]
  100ffc:	4201      	tst	r1, r0
  100ffe:	d1f9      	bne.n	100ff4 <UDP_Handler+0x1e0>
  101000:	6a72      	ldr	r2, [r6, #36]	; 0x24
  101002:	2a04      	cmp	r2, #4
  101004:	d0d6      	beq.n	100fb4 <UDP_Handler+0x1a0>
  101006:	4649      	mov	r1, r9
  101008:	008a      	lsls	r2, r1, #2
  10100a:	58d1      	ldr	r1, [r2, r3]
  10100c:	068d      	lsls	r5, r1, #26
  10100e:	d5d1      	bpl.n	100fb4 <UDP_Handler+0x1a0>
  101010:	2120      	movs	r1, #32
  101012:	58d0      	ldr	r0, [r2, r3]
  101014:	4388      	bics	r0, r1
  101016:	50d0      	str	r0, [r2, r3]
  101018:	58d0      	ldr	r0, [r2, r3]
  10101a:	4201      	tst	r1, r0
  10101c:	d1f9      	bne.n	101012 <UDP_Handler+0x1fe>
  10101e:	e7c9      	b.n	100fb4 <UDP_Handler+0x1a0>
  101020:	4843      	ldr	r0, [pc, #268]	; (101130 <UDP_Handler+0x31c>)
  101022:	f000 fd83 	bl	101b2c <iprintf>
  101026:	6a73      	ldr	r3, [r6, #36]	; 0x24
  101028:	2b02      	cmp	r3, #2
  10102a:	d057      	beq.n	1010dc <UDP_Handler+0x2c8>
  10102c:	6a73      	ldr	r3, [r6, #36]	; 0x24
  10102e:	2b03      	cmp	r3, #3
  101030:	d054      	beq.n	1010dc <UDP_Handler+0x2c8>
  101032:	6923      	ldr	r3, [r4, #16]
  101034:	6822      	ldr	r2, [r4, #0]
  101036:	1c19      	adds	r1, r3, #0
  101038:	6810      	ldr	r0, [r2, #0]
  10103a:	3108      	adds	r1, #8
  10103c:	6d02      	ldr	r2, [r0, #80]	; 0x50
  10103e:	701a      	strb	r2, [r3, #0]
  101040:	3301      	adds	r3, #1
  101042:	428b      	cmp	r3, r1
  101044:	d1fa      	bne.n	10103c <UDP_Handler+0x228>
  101046:	6923      	ldr	r3, [r4, #16]
  101048:	781b      	ldrb	r3, [r3, #0]
  10104a:	2b7f      	cmp	r3, #127	; 0x7f
  10104c:	d900      	bls.n	101050 <UDP_Handler+0x23c>
  10104e:	e105      	b.n	10125c <UDP_Handler+0x448>
  101050:	6823      	ldr	r3, [r4, #0]
  101052:	681b      	ldr	r3, [r3, #0]
  101054:	4649      	mov	r1, r9
  101056:	008a      	lsls	r2, r1, #2
  101058:	58d1      	ldr	r1, [r2, r3]
  10105a:	074d      	lsls	r5, r1, #29
  10105c:	d506      	bpl.n	10106c <UDP_Handler+0x258>
  10105e:	2104      	movs	r1, #4
  101060:	58d0      	ldr	r0, [r2, r3]
  101062:	4388      	bics	r0, r1
  101064:	50d0      	str	r0, [r2, r3]
  101066:	58d0      	ldr	r0, [r2, r3]
  101068:	4201      	tst	r1, r0
  10106a:	d1f9      	bne.n	101060 <UDP_Handler+0x24c>
  10106c:	68e3      	ldr	r3, [r4, #12]
  10106e:	691b      	ldr	r3, [r3, #16]
  101070:	2b00      	cmp	r3, #0
  101072:	d09c      	beq.n	100fae <UDP_Handler+0x19a>
  101074:	1c20      	adds	r0, r4, #0
  101076:	f000 fa4a 	bl	10150e <UDP_Handler+0x6fa>
  10107a:	e798      	b.n	100fae <UDP_Handler+0x19a>
  10107c:	482d      	ldr	r0, [pc, #180]	; (101134 <UDP_Handler+0x320>)
  10107e:	f000 fd55 	bl	101b2c <iprintf>
  101082:	6a73      	ldr	r3, [r6, #36]	; 0x24
  101084:	2b03      	cmp	r3, #3
  101086:	d100      	bne.n	10108a <UDP_Handler+0x276>
  101088:	e16b      	b.n	101362 <UDP_Handler+0x54e>
  10108a:	4b2b      	ldr	r3, [pc, #172]	; (101138 <UDP_Handler+0x324>)
  10108c:	421f      	tst	r7, r3
  10108e:	d100      	bne.n	101092 <UDP_Handler+0x27e>
  101090:	e0f4      	b.n	10127c <UDP_Handler+0x468>
  101092:	06b9      	lsls	r1, r7, #26
  101094:	d400      	bmi.n	101098 <UDP_Handler+0x284>
  101096:	e0a0      	b.n	1011da <UDP_Handler+0x3c6>
  101098:	4828      	ldr	r0, [pc, #160]	; (10113c <UDP_Handler+0x328>)
  10109a:	f000 fd47 	bl	101b2c <iprintf>
  10109e:	1c20      	adds	r0, r4, #0
  1010a0:	1c29      	adds	r1, r5, #0
  1010a2:	f7ff fad3 	bl	10064c <UDP_ClearRXFlag>
  1010a6:	e780      	b.n	100faa <UDP_Handler+0x196>
  1010a8:	4825      	ldr	r0, [pc, #148]	; (101140 <UDP_Handler+0x32c>)
  1010aa:	f000 fd3f 	bl	101b2c <iprintf>
  1010ae:	6a73      	ldr	r3, [r6, #36]	; 0x24
  1010b0:	2b02      	cmp	r3, #2
  1010b2:	d100      	bne.n	1010b6 <UDP_Handler+0x2a2>
  1010b4:	e09a      	b.n	1011ec <UDP_Handler+0x3d8>
  1010b6:	6823      	ldr	r3, [r4, #0]
  1010b8:	4650      	mov	r0, sl
  1010ba:	40a8      	lsls	r0, r5
  1010bc:	681b      	ldr	r3, [r3, #0]
  1010be:	4682      	mov	sl, r0
  1010c0:	4648      	mov	r0, r9
  1010c2:	0082      	lsls	r2, r0, #2
  1010c4:	58d1      	ldr	r1, [r2, r3]
  1010c6:	07c8      	lsls	r0, r1, #31
  1010c8:	d400      	bmi.n	1010cc <UDP_Handler+0x2b8>
  1010ca:	e76b      	b.n	100fa4 <UDP_Handler+0x190>
  1010cc:	2101      	movs	r1, #1
  1010ce:	58d0      	ldr	r0, [r2, r3]
  1010d0:	4388      	bics	r0, r1
  1010d2:	50d0      	str	r0, [r2, r3]
  1010d4:	58d0      	ldr	r0, [r2, r3]
  1010d6:	4201      	tst	r1, r0
  1010d8:	d1f9      	bne.n	1010ce <UDP_Handler+0x2ba>
  1010da:	e763      	b.n	100fa4 <UDP_Handler+0x190>
  1010dc:	6a73      	ldr	r3, [r6, #36]	; 0x24
  1010de:	2b02      	cmp	r3, #2
  1010e0:	d002      	beq.n	1010e8 <UDP_Handler+0x2d4>
  1010e2:	6a73      	ldr	r3, [r6, #36]	; 0x24
  1010e4:	2b03      	cmp	r3, #3
  1010e6:	d1a4      	bne.n	101032 <UDP_Handler+0x21e>
  1010e8:	4816      	ldr	r0, [pc, #88]	; (101144 <UDP_Handler+0x330>)
  1010ea:	f000 fd1f 	bl	101b2c <iprintf>
  1010ee:	6935      	ldr	r5, [r6, #16]
  1010f0:	2301      	movs	r3, #1
  1010f2:	6273      	str	r3, [r6, #36]	; 0x24
  1010f4:	2d00      	cmp	r5, #0
  1010f6:	d09c      	beq.n	101032 <UDP_Handler+0x21e>
  1010f8:	68b1      	ldr	r1, [r6, #8]
  1010fa:	6873      	ldr	r3, [r6, #4]
  1010fc:	6970      	ldr	r0, [r6, #20]
  1010fe:	18cb      	adds	r3, r1, r3
  101100:	68f2      	ldr	r2, [r6, #12]
  101102:	2100      	movs	r1, #0
  101104:	f000 fa04 	bl	101510 <UDP_Handler+0x6fc>
  101108:	e793      	b.n	101032 <UDP_Handler+0x21e>
  10110a:	46d9      	mov	r9, fp
  10110c:	6963      	ldr	r3, [r4, #20]
  10110e:	e6dd      	b.n	100ecc <UDP_Handler+0xb8>
  101110:	00104874 	.word	0x00104874
  101114:	0010488c 	.word	0x0010488c
  101118:	fffffc00 	.word	0xfffffc00
  10111c:	fffffeff 	.word	0xfffffeff
  101120:	00104784 	.word	0x00104784
  101124:	fffff400 	.word	0xfffff400
  101128:	0010489c 	.word	0x0010489c
  10112c:	001046f8 	.word	0x001046f8
  101130:	001048c4 	.word	0x001048c4
  101134:	001048a8 	.word	0x001048a8
  101138:	ffff0700 	.word	0xffff0700
  10113c:	001048b4 	.word	0x001048b4
  101140:	001048a4 	.word	0x001048a4
  101144:	00104838 	.word	0x00104838
  101148:	48d7      	ldr	r0, [pc, #860]	; (1014a8 <UDP_Handler+0x694>)
  10114a:	f000 fcef 	bl	101b2c <iprintf>
  10114e:	2380      	movs	r3, #128	; 0x80
  101150:	011b      	lsls	r3, r3, #4
  101152:	421d      	tst	r5, r3
  101154:	d100      	bne.n	101158 <UDP_Handler+0x344>
  101156:	e680      	b.n	100e5a <UDP_Handler+0x46>
  101158:	48d4      	ldr	r0, [pc, #848]	; (1014ac <UDP_Handler+0x698>)
  10115a:	f000 fce7 	bl	101b2c <iprintf>
  10115e:	68e3      	ldr	r3, [r4, #12]
  101160:	1c20      	adds	r0, r4, #0
  101162:	695b      	ldr	r3, [r3, #20]
  101164:	464e      	mov	r6, r9
  101166:	f000 f9d2 	bl	10150e <UDP_Handler+0x6fa>
  10116a:	6a33      	ldr	r3, [r6, #32]
  10116c:	2080      	movs	r0, #128	; 0x80
  10116e:	0100      	lsls	r0, r0, #4
  101170:	4303      	orrs	r3, r0
  101172:	49cf      	ldr	r1, [pc, #828]	; (1014b0 <UDP_Handler+0x69c>)
  101174:	6233      	str	r3, [r6, #32]
  101176:	2380      	movs	r3, #128	; 0x80
  101178:	400d      	ands	r5, r1
  10117a:	005b      	lsls	r3, r3, #1
  10117c:	429d      	cmp	r5, r3
  10117e:	d000      	beq.n	101182 <UDP_Handler+0x36e>
  101180:	e670      	b.n	100e64 <UDP_Handler+0x50>
  101182:	48cc      	ldr	r0, [pc, #816]	; (1014b4 <UDP_Handler+0x6a0>)
  101184:	f000 fcd2 	bl	101b2c <iprintf>
  101188:	6963      	ldr	r3, [r4, #20]
  10118a:	6819      	ldr	r1, [r3, #0]
  10118c:	2220      	movs	r2, #32
  10118e:	420a      	tst	r2, r1
  101190:	d000      	beq.n	101194 <UDP_Handler+0x380>
  101192:	e69b      	b.n	100ecc <UDP_Handler+0xb8>
  101194:	464e      	mov	r6, r9
  101196:	6930      	ldr	r0, [r6, #16]
  101198:	2188      	movs	r1, #136	; 0x88
  10119a:	0189      	lsls	r1, r1, #6
  10119c:	4301      	orrs	r1, r0
  10119e:	6131      	str	r1, [r6, #16]
  1011a0:	6a31      	ldr	r1, [r6, #32]
  1011a2:	4329      	orrs	r1, r5
  1011a4:	6231      	str	r1, [r6, #32]
  1011a6:	6819      	ldr	r1, [r3, #0]
  1011a8:	430a      	orrs	r2, r1
  1011aa:	601a      	str	r2, [r3, #0]
  1011ac:	6822      	ldr	r2, [r4, #0]
  1011ae:	6813      	ldr	r3, [r2, #0]
  1011b0:	6f59      	ldr	r1, [r3, #116]	; 0x74
  1011b2:	430d      	orrs	r5, r1
  1011b4:	675d      	str	r5, [r3, #116]	; 0x74
  1011b6:	68d3      	ldr	r3, [r2, #12]
  1011b8:	2101      	movs	r1, #1
  1011ba:	4099      	lsls	r1, r3
  1011bc:	4bbe      	ldr	r3, [pc, #760]	; (1014b8 <UDP_Handler+0x6a4>)
  1011be:	6159      	str	r1, [r3, #20]
  1011c0:	6859      	ldr	r1, [r3, #4]
  1011c2:	6912      	ldr	r2, [r2, #16]
  1011c4:	430a      	orrs	r2, r1
  1011c6:	605a      	str	r2, [r3, #4]
  1011c8:	68e3      	ldr	r3, [r4, #12]
  1011ca:	689b      	ldr	r3, [r3, #8]
  1011cc:	2b00      	cmp	r3, #0
  1011ce:	d09d      	beq.n	10110c <UDP_Handler+0x2f8>
  1011d0:	1c20      	adds	r0, r4, #0
  1011d2:	f000 f99c 	bl	10150e <UDP_Handler+0x6fa>
  1011d6:	6963      	ldr	r3, [r4, #20]
  1011d8:	e678      	b.n	100ecc <UDP_Handler+0xb8>
  1011da:	48b8      	ldr	r0, [pc, #736]	; (1014bc <UDP_Handler+0x6a8>)
  1011dc:	f000 fca6 	bl	101b2c <iprintf>
  1011e0:	9d02      	ldr	r5, [sp, #8]
  1011e2:	696b      	ldr	r3, [r5, #20]
  1011e4:	4650      	mov	r0, sl
  1011e6:	4303      	orrs	r3, r0
  1011e8:	616b      	str	r3, [r5, #20]
  1011ea:	e6de      	b.n	100faa <UDP_Handler+0x196>
  1011ec:	68b3      	ldr	r3, [r6, #8]
  1011ee:	69b1      	ldr	r1, [r6, #24]
  1011f0:	428b      	cmp	r3, r1
  1011f2:	d200      	bcs.n	1011f6 <UDP_Handler+0x3e2>
  1011f4:	e10f      	b.n	101416 <UDP_Handler+0x602>
  1011f6:	22e0      	movs	r2, #224	; 0xe0
  1011f8:	00d2      	lsls	r2, r2, #3
  1011fa:	4217      	tst	r7, r2
  1011fc:	d006      	beq.n	10120c <UDP_Handler+0x3f8>
  1011fe:	6872      	ldr	r2, [r6, #4]
  101200:	4692      	mov	sl, r2
  101202:	2a00      	cmp	r2, #0
  101204:	d102      	bne.n	10120c <UDP_Handler+0x3f8>
  101206:	428b      	cmp	r3, r1
  101208:	d100      	bne.n	10120c <UDP_Handler+0x3f8>
  10120a:	e11e      	b.n	10144a <UDP_Handler+0x636>
  10120c:	48ac      	ldr	r0, [pc, #688]	; (1014c0 <UDP_Handler+0x6ac>)
  10120e:	f000 fc8d 	bl	101b2c <iprintf>
  101212:	69b3      	ldr	r3, [r6, #24]
  101214:	68f2      	ldr	r2, [r6, #12]
  101216:	18d2      	adds	r2, r2, r3
  101218:	60f2      	str	r2, [r6, #12]
  10121a:	68b2      	ldr	r2, [r6, #8]
  10121c:	1ad3      	subs	r3, r2, r3
  10121e:	60b3      	str	r3, [r6, #8]
  101220:	2320      	movs	r3, #32
  101222:	5cf3      	ldrb	r3, [r6, r3]
  101224:	469a      	mov	sl, r3
  101226:	2b01      	cmp	r3, #1
  101228:	d100      	bne.n	10122c <UDP_Handler+0x418>
  10122a:	e155      	b.n	1014d8 <UDP_Handler+0x6c4>
  10122c:	6823      	ldr	r3, [r4, #0]
  10122e:	4648      	mov	r0, r9
  101230:	681b      	ldr	r3, [r3, #0]
  101232:	0082      	lsls	r2, r0, #2
  101234:	58d1      	ldr	r1, [r2, r3]
  101236:	06c8      	lsls	r0, r1, #27
  101238:	d406      	bmi.n	101248 <UDP_Handler+0x434>
  10123a:	2110      	movs	r1, #16
  10123c:	58d0      	ldr	r0, [r2, r3]
  10123e:	4308      	orrs	r0, r1
  101240:	50d0      	str	r0, [r2, r3]
  101242:	58d0      	ldr	r0, [r2, r3]
  101244:	4201      	tst	r1, r0
  101246:	d0f9      	beq.n	10123c <UDP_Handler+0x428>
  101248:	1c20      	adds	r0, r4, #0
  10124a:	1c29      	adds	r1, r5, #0
  10124c:	f7ff fa26 	bl	10069c <UDP_WritePayload>
  101250:	6823      	ldr	r3, [r4, #0]
  101252:	681b      	ldr	r3, [r3, #0]
  101254:	2201      	movs	r2, #1
  101256:	40aa      	lsls	r2, r5
  101258:	4692      	mov	sl, r2
  10125a:	e731      	b.n	1010c0 <UDP_Handler+0x2ac>
  10125c:	6823      	ldr	r3, [r4, #0]
  10125e:	464d      	mov	r5, r9
  101260:	681b      	ldr	r3, [r3, #0]
  101262:	00aa      	lsls	r2, r5, #2
  101264:	58d1      	ldr	r1, [r2, r3]
  101266:	0608      	lsls	r0, r1, #24
  101268:	d500      	bpl.n	10126c <UDP_Handler+0x458>
  10126a:	e6f3      	b.n	101054 <UDP_Handler+0x240>
  10126c:	2180      	movs	r1, #128	; 0x80
  10126e:	58d0      	ldr	r0, [r2, r3]
  101270:	4308      	orrs	r0, r1
  101272:	50d0      	str	r0, [r2, r3]
  101274:	58d0      	ldr	r0, [r2, r3]
  101276:	4201      	tst	r1, r0
  101278:	d0f9      	beq.n	10126e <UDP_Handler+0x45a>
  10127a:	e6eb      	b.n	101054 <UDP_Handler+0x240>
  10127c:	4891      	ldr	r0, [pc, #580]	; (1014c4 <UDP_Handler+0x6b0>)
  10127e:	f000 fc55 	bl	101b2c <iprintf>
  101282:	1c20      	adds	r0, r4, #0
  101284:	1c29      	adds	r1, r5, #0
  101286:	f7ff f9e1 	bl	10064c <UDP_ClearRXFlag>
  10128a:	6a73      	ldr	r3, [r6, #36]	; 0x24
  10128c:	2b02      	cmp	r3, #2
  10128e:	d003      	beq.n	101298 <UDP_Handler+0x484>
  101290:	6a73      	ldr	r3, [r6, #36]	; 0x24
  101292:	2b03      	cmp	r3, #3
  101294:	d000      	beq.n	101298 <UDP_Handler+0x484>
  101296:	e688      	b.n	100faa <UDP_Handler+0x196>
  101298:	488b      	ldr	r0, [pc, #556]	; (1014c8 <UDP_Handler+0x6b4>)
  10129a:	f000 fc47 	bl	101b2c <iprintf>
  10129e:	6935      	ldr	r5, [r6, #16]
  1012a0:	2301      	movs	r3, #1
  1012a2:	6273      	str	r3, [r6, #36]	; 0x24
  1012a4:	2d00      	cmp	r5, #0
  1012a6:	d100      	bne.n	1012aa <UDP_Handler+0x496>
  1012a8:	e67f      	b.n	100faa <UDP_Handler+0x196>
  1012aa:	68b1      	ldr	r1, [r6, #8]
  1012ac:	6873      	ldr	r3, [r6, #4]
  1012ae:	6970      	ldr	r0, [r6, #20]
  1012b0:	18cb      	adds	r3, r1, r3
  1012b2:	68f2      	ldr	r2, [r6, #12]
  1012b4:	2100      	movs	r1, #0
  1012b6:	f000 f92b 	bl	101510 <UDP_Handler+0x6fc>
  1012ba:	e676      	b.n	100faa <UDP_Handler+0x196>
  1012bc:	4883      	ldr	r0, [pc, #524]	; (1014cc <UDP_Handler+0x6b8>)
  1012be:	f000 fc35 	bl	101b2c <iprintf>
  1012c2:	6963      	ldr	r3, [r4, #20]
  1012c4:	6819      	ldr	r1, [r3, #0]
  1012c6:	2204      	movs	r2, #4
  1012c8:	430a      	orrs	r2, r1
  1012ca:	601a      	str	r2, [r3, #0]
  1012cc:	6822      	ldr	r2, [r4, #0]
  1012ce:	6812      	ldr	r2, [r2, #0]
  1012d0:	497f      	ldr	r1, [pc, #508]	; (1014d0 <UDP_Handler+0x6bc>)
  1012d2:	6f50      	ldr	r0, [r2, #116]	; 0x74
  1012d4:	4001      	ands	r1, r0
  1012d6:	6751      	str	r1, [r2, #116]	; 0x74
  1012d8:	681a      	ldr	r2, [r3, #0]
  1012da:	2118      	movs	r1, #24
  1012dc:	438a      	bics	r2, r1
  1012de:	601a      	str	r2, [r3, #0]
  1012e0:	68a5      	ldr	r5, [r4, #8]
  1012e2:	2d00      	cmp	r5, #0
  1012e4:	d019      	beq.n	10131a <UDP_Handler+0x506>
  1012e6:	2000      	movs	r0, #0
  1012e8:	2100      	movs	r1, #0
  1012ea:	2200      	movs	r2, #0
  1012ec:	2702      	movs	r7, #2
  1012ee:	6866      	ldr	r6, [r4, #4]
  1012f0:	2300      	movs	r3, #0
  1012f2:	42a8      	cmp	r0, r5
  1012f4:	d203      	bcs.n	1012fe <UDP_Handler+0x4ea>
  1012f6:	0083      	lsls	r3, r0, #2
  1012f8:	181b      	adds	r3, r3, r0
  1012fa:	00db      	lsls	r3, r3, #3
  1012fc:	18f3      	adds	r3, r6, r3
  1012fe:	3101      	adds	r1, #1
  101300:	0609      	lsls	r1, r1, #24
  101302:	0e09      	lsrs	r1, r1, #24
  101304:	601a      	str	r2, [r3, #0]
  101306:	605a      	str	r2, [r3, #4]
  101308:	60da      	str	r2, [r3, #12]
  10130a:	609a      	str	r2, [r3, #8]
  10130c:	611a      	str	r2, [r3, #16]
  10130e:	615a      	str	r2, [r3, #20]
  101310:	61df      	str	r7, [r3, #28]
  101312:	625a      	str	r2, [r3, #36]	; 0x24
  101314:	1c08      	adds	r0, r1, #0
  101316:	42a9      	cmp	r1, r5
  101318:	d3e9      	bcc.n	1012ee <UDP_Handler+0x4da>
  10131a:	1c20      	adds	r0, r4, #0
  10131c:	f7ff fb56 	bl	1009cc <UDP_DisableEndpoints>
  101320:	2100      	movs	r1, #0
  101322:	1c20      	adds	r0, r4, #0
  101324:	f7ff fc64 	bl	100bf0 <UDP_ConfigureEndpoint>
  101328:	4649      	mov	r1, r9
  10132a:	6a0a      	ldr	r2, [r1, #32]
  10132c:	238c      	movs	r3, #140	; 0x8c
  10132e:	019b      	lsls	r3, r3, #6
  101330:	4313      	orrs	r3, r2
  101332:	620b      	str	r3, [r1, #32]
  101334:	68e3      	ldr	r3, [r4, #12]
  101336:	695a      	ldr	r2, [r3, #20]
  101338:	2a00      	cmp	r2, #0
  10133a:	d004      	beq.n	101346 <UDP_Handler+0x532>
  10133c:	690a      	ldr	r2, [r1, #16]
  10133e:	2580      	movs	r5, #128	; 0x80
  101340:	012d      	lsls	r5, r5, #4
  101342:	432a      	orrs	r2, r5
  101344:	610a      	str	r2, [r1, #16]
  101346:	685b      	ldr	r3, [r3, #4]
  101348:	2b00      	cmp	r3, #0
  10134a:	d002      	beq.n	101352 <UDP_Handler+0x53e>
  10134c:	1c20      	adds	r0, r4, #0
  10134e:	f000 f8de 	bl	10150e <UDP_Handler+0x6fa>
  101352:	464e      	mov	r6, r9
  101354:	6a32      	ldr	r2, [r6, #32]
  101356:	2380      	movs	r3, #128	; 0x80
  101358:	015b      	lsls	r3, r3, #5
  10135a:	4313      	orrs	r3, r2
  10135c:	6233      	str	r3, [r6, #32]
  10135e:	6963      	ldr	r3, [r4, #20]
  101360:	e5b4      	b.n	100ecc <UDP_Handler+0xb8>
  101362:	0c39      	lsrs	r1, r7, #16
  101364:	4856      	ldr	r0, [pc, #344]	; (1014c0 <UDP_Handler+0x6ac>)
  101366:	9105      	str	r1, [sp, #20]
  101368:	f000 fbe0 	bl	101b2c <iprintf>
  10136c:	6823      	ldr	r3, [r4, #0]
  10136e:	681b      	ldr	r3, [r3, #0]
  101370:	9303      	str	r3, [sp, #12]
  101372:	68a3      	ldr	r3, [r4, #8]
  101374:	6862      	ldr	r2, [r4, #4]
  101376:	2100      	movs	r1, #0
  101378:	429d      	cmp	r5, r3
  10137a:	d203      	bcs.n	101384 <UDP_Handler+0x570>
  10137c:	00a9      	lsls	r1, r5, #2
  10137e:	1949      	adds	r1, r1, r5
  101380:	00c9      	lsls	r1, r1, #3
  101382:	1851      	adds	r1, r2, r1
  101384:	9a05      	ldr	r2, [sp, #20]
  101386:	684b      	ldr	r3, [r1, #4]
  101388:	4694      	mov	ip, r2
  10138a:	429a      	cmp	r2, r3
  10138c:	d900      	bls.n	101390 <UDP_Handler+0x57c>
  10138e:	469c      	mov	ip, r3
  101390:	4662      	mov	r2, ip
  101392:	2a00      	cmp	r2, #0
  101394:	d01a      	beq.n	1013cc <UDP_Handler+0x5b8>
  101396:	1c28      	adds	r0, r5, #0
  101398:	3014      	adds	r0, #20
  10139a:	0080      	lsls	r0, r0, #2
  10139c:	9004      	str	r0, [sp, #16]
  10139e:	680a      	ldr	r2, [r1, #0]
  1013a0:	1c20      	adds	r0, r4, #0
  1013a2:	9501      	str	r5, [sp, #4]
  1013a4:	9600      	str	r6, [sp, #0]
  1013a6:	4664      	mov	r4, ip
  1013a8:	2300      	movs	r3, #0
  1013aa:	4684      	mov	ip, r0
  1013ac:	9d04      	ldr	r5, [sp, #16]
  1013ae:	9e03      	ldr	r6, [sp, #12]
  1013b0:	59a8      	ldr	r0, [r5, r6]
  1013b2:	7010      	strb	r0, [r2, #0]
  1013b4:	680a      	ldr	r2, [r1, #0]
  1013b6:	3301      	adds	r3, #1
  1013b8:	3201      	adds	r2, #1
  1013ba:	600a      	str	r2, [r1, #0]
  1013bc:	42a3      	cmp	r3, r4
  1013be:	d1f5      	bne.n	1013ac <UDP_Handler+0x598>
  1013c0:	4663      	mov	r3, ip
  1013c2:	9d01      	ldr	r5, [sp, #4]
  1013c4:	46a4      	mov	ip, r4
  1013c6:	9e00      	ldr	r6, [sp, #0]
  1013c8:	1c1c      	adds	r4, r3, #0
  1013ca:	684b      	ldr	r3, [r1, #4]
  1013cc:	4660      	mov	r0, ip
  1013ce:	1a1b      	subs	r3, r3, r0
  1013d0:	604b      	str	r3, [r1, #4]
  1013d2:	68cb      	ldr	r3, [r1, #12]
  1013d4:	4463      	add	r3, ip
  1013d6:	60cb      	str	r3, [r1, #12]
  1013d8:	9a05      	ldr	r2, [sp, #20]
  1013da:	688b      	ldr	r3, [r1, #8]
  1013dc:	18d3      	adds	r3, r2, r3
  1013de:	1a1b      	subs	r3, r3, r0
  1013e0:	608b      	str	r3, [r1, #8]
  1013e2:	1c20      	adds	r0, r4, #0
  1013e4:	1c29      	adds	r1, r5, #0
  1013e6:	f7ff f931 	bl	10064c <UDP_ClearRXFlag>
  1013ea:	6873      	ldr	r3, [r6, #4]
  1013ec:	2b00      	cmp	r3, #0
  1013ee:	d004      	beq.n	1013fa <UDP_Handler+0x5e6>
  1013f0:	69b3      	ldr	r3, [r6, #24]
  1013f2:	9d05      	ldr	r5, [sp, #20]
  1013f4:	429d      	cmp	r5, r3
  1013f6:	d300      	bcc.n	1013fa <UDP_Handler+0x5e6>
  1013f8:	e5d7      	b.n	100faa <UDP_Handler+0x196>
  1013fa:	23e0      	movs	r3, #224	; 0xe0
  1013fc:	00db      	lsls	r3, r3, #3
  1013fe:	421f      	tst	r7, r3
  101400:	d004      	beq.n	10140c <UDP_Handler+0x5f8>
  101402:	9d02      	ldr	r5, [sp, #8]
  101404:	696b      	ldr	r3, [r5, #20]
  101406:	4650      	mov	r0, sl
  101408:	4303      	orrs	r3, r0
  10140a:	616b      	str	r3, [r5, #20]
  10140c:	6a73      	ldr	r3, [r6, #36]	; 0x24
  10140e:	2b02      	cmp	r3, #2
  101410:	d000      	beq.n	101414 <UDP_Handler+0x600>
  101412:	e73d      	b.n	101290 <UDP_Handler+0x47c>
  101414:	e740      	b.n	101298 <UDP_Handler+0x484>
  101416:	1c19      	adds	r1, r3, #0
  101418:	4829      	ldr	r0, [pc, #164]	; (1014c0 <UDP_Handler+0x6ac>)
  10141a:	f000 fb87 	bl	101b2c <iprintf>
  10141e:	68f2      	ldr	r2, [r6, #12]
  101420:	68b3      	ldr	r3, [r6, #8]
  101422:	18d3      	adds	r3, r2, r3
  101424:	60f3      	str	r3, [r6, #12]
  101426:	2300      	movs	r3, #0
  101428:	60b3      	str	r3, [r6, #8]
  10142a:	23e0      	movs	r3, #224	; 0xe0
  10142c:	00db      	lsls	r3, r3, #3
  10142e:	421f      	tst	r7, r3
  101430:	d115      	bne.n	10145e <UDP_Handler+0x64a>
  101432:	4651      	mov	r1, sl
  101434:	6a73      	ldr	r3, [r6, #36]	; 0x24
  101436:	40a9      	lsls	r1, r5
  101438:	468a      	mov	sl, r1
  10143a:	2b02      	cmp	r3, #2
  10143c:	d01a      	beq.n	101474 <UDP_Handler+0x660>
  10143e:	6a73      	ldr	r3, [r6, #36]	; 0x24
  101440:	2b03      	cmp	r3, #3
  101442:	d017      	beq.n	101474 <UDP_Handler+0x660>
  101444:	6823      	ldr	r3, [r4, #0]
  101446:	681b      	ldr	r3, [r3, #0]
  101448:	e63a      	b.n	1010c0 <UDP_Handler+0x2ac>
  10144a:	1c19      	adds	r1, r3, #0
  10144c:	481c      	ldr	r0, [pc, #112]	; (1014c0 <UDP_Handler+0x6ac>)
  10144e:	f000 fb6d 	bl	101b2c <iprintf>
  101452:	68f2      	ldr	r2, [r6, #12]
  101454:	68b3      	ldr	r3, [r6, #8]
  101456:	4651      	mov	r1, sl
  101458:	18d3      	adds	r3, r2, r3
  10145a:	60f3      	str	r3, [r6, #12]
  10145c:	60b1      	str	r1, [r6, #8]
  10145e:	9a02      	ldr	r2, [sp, #8]
  101460:	6953      	ldr	r3, [r2, #20]
  101462:	2201      	movs	r2, #1
  101464:	40aa      	lsls	r2, r5
  101466:	9802      	ldr	r0, [sp, #8]
  101468:	4313      	orrs	r3, r2
  10146a:	6143      	str	r3, [r0, #20]
  10146c:	6a73      	ldr	r3, [r6, #36]	; 0x24
  10146e:	4692      	mov	sl, r2
  101470:	2b02      	cmp	r3, #2
  101472:	d1e4      	bne.n	10143e <UDP_Handler+0x62a>
  101474:	4814      	ldr	r0, [pc, #80]	; (1014c8 <UDP_Handler+0x6b4>)
  101476:	f000 fb59 	bl	101b2c <iprintf>
  10147a:	6931      	ldr	r1, [r6, #16]
  10147c:	2301      	movs	r3, #1
  10147e:	6273      	str	r3, [r6, #36]	; 0x24
  101480:	468c      	mov	ip, r1
  101482:	2900      	cmp	r1, #0
  101484:	d0de      	beq.n	101444 <UDP_Handler+0x630>
  101486:	68b2      	ldr	r2, [r6, #8]
  101488:	6873      	ldr	r3, [r6, #4]
  10148a:	6970      	ldr	r0, [r6, #20]
  10148c:	18d3      	adds	r3, r2, r3
  10148e:	2100      	movs	r1, #0
  101490:	68f2      	ldr	r2, [r6, #12]
  101492:	f000 f83e 	bl	101512 <UDP_Handler+0x6fe>
  101496:	e7d5      	b.n	101444 <UDP_Handler+0x630>
  101498:	4a0e      	ldr	r2, [pc, #56]	; (1014d4 <UDP_Handler+0x6c0>)
  10149a:	6bd1      	ldr	r1, [r2, #60]	; 0x3c
  10149c:	4019      	ands	r1, r3
  10149e:	2902      	cmp	r1, #2
  1014a0:	d02d      	beq.n	1014fe <UDP_Handler+0x6ea>
  1014a2:	6313      	str	r3, [r2, #48]	; 0x30
  1014a4:	e4ca      	b.n	100e3c <UDP_Handler+0x28>
  1014a6:	46c0      	nop			; (mov r8, r8)
  1014a8:	001048cc 	.word	0x001048cc
  1014ac:	0010487c 	.word	0x0010487c
  1014b0:	fffff7ff 	.word	0xfffff7ff
  1014b4:	00104884 	.word	0x00104884
  1014b8:	fffffc00 	.word	0xfffffc00
  1014bc:	001048bc 	.word	0x001048bc
  1014c0:	00104870 	.word	0x00104870
  1014c4:	001048ac 	.word	0x001048ac
  1014c8:	00104838 	.word	0x00104838
  1014cc:	00104894 	.word	0x00104894
  1014d0:	fffffeff 	.word	0xfffffeff
  1014d4:	fffff400 	.word	0xfffff400
  1014d8:	1c29      	adds	r1, r5, #0
  1014da:	1c20      	adds	r0, r4, #0
  1014dc:	f7ff f8de 	bl	10069c <UDP_WritePayload>
  1014e0:	6823      	ldr	r3, [r4, #0]
  1014e2:	4649      	mov	r1, r9
  1014e4:	681b      	ldr	r3, [r3, #0]
  1014e6:	008a      	lsls	r2, r1, #2
  1014e8:	58d1      	ldr	r1, [r2, r3]
  1014ea:	06c8      	lsls	r0, r1, #27
  1014ec:	d40b      	bmi.n	101506 <UDP_Handler+0x6f2>
  1014ee:	2110      	movs	r1, #16
  1014f0:	58d0      	ldr	r0, [r2, r3]
  1014f2:	4308      	orrs	r0, r1
  1014f4:	50d0      	str	r0, [r2, r3]
  1014f6:	58d0      	ldr	r0, [r2, r3]
  1014f8:	4201      	tst	r1, r0
  1014fa:	d0f9      	beq.n	1014f0 <UDP_Handler+0x6dc>
  1014fc:	e6aa      	b.n	101254 <UDP_Handler+0x440>
  1014fe:	6351      	str	r1, [r2, #52]	; 0x34
  101500:	e49c      	b.n	100e3c <UDP_Handler+0x28>
  101502:	6351      	str	r1, [r2, #52]	; 0x34
  101504:	e503      	b.n	100f0e <UDP_Handler+0xfa>
  101506:	4651      	mov	r1, sl
  101508:	40a9      	lsls	r1, r5
  10150a:	468a      	mov	sl, r1
  10150c:	e5d8      	b.n	1010c0 <UDP_Handler+0x2ac>
  10150e:	4718      	bx	r3
  101510:	4728      	bx	r5
  101512:	4760      	bx	ip

00101514 <KBD_ReportReceived>:
  101514:	b530      	push	{r4, r5, lr}
  101516:	6a45      	ldr	r5, [r0, #36]	; 0x24
  101518:	b083      	sub	sp, #12
  10151a:	1c04      	adds	r4, r0, #0
  10151c:	2d00      	cmp	r5, #0
  10151e:	d005      	beq.n	10152c <KBD_ReportReceived+0x18>
  101520:	2000      	movs	r0, #0
  101522:	2100      	movs	r1, #0
  101524:	2200      	movs	r2, #0
  101526:	2300      	movs	r3, #0
  101528:	f000 f810 	bl	10154c <KBD_ReportReceived+0x38>
  10152c:	6820      	ldr	r0, [r4, #0]
  10152e:	6803      	ldr	r3, [r0, #0]
  101530:	695a      	ldr	r2, [r3, #20]
  101532:	2300      	movs	r3, #0
  101534:	9300      	str	r3, [sp, #0]
  101536:	9301      	str	r3, [sp, #4]
  101538:	2100      	movs	r1, #0
  10153a:	6854      	ldr	r4, [r2, #4]
  10153c:	2200      	movs	r2, #0
  10153e:	f000 f804 	bl	10154a <KBD_ReportReceived+0x36>
  101542:	b003      	add	sp, #12
  101544:	bc30      	pop	{r4, r5}
  101546:	bc01      	pop	{r0}
  101548:	4700      	bx	r0
  10154a:	4720      	bx	r4
  10154c:	4728      	bx	r5
  10154e:	46c0      	nop			; (mov r8, r8)

00101550 <KBD_RequestHandler>:
  101550:	b570      	push	{r4, r5, r6, lr}
  101552:	6805      	ldr	r5, [r0, #0]
  101554:	692c      	ldr	r4, [r5, #16]
  101556:	b082      	sub	sp, #8
  101558:	1c06      	adds	r6, r0, #0
  10155a:	4857      	ldr	r0, [pc, #348]	; (1016b8 <KBD_RequestHandler+0x168>)
  10155c:	f000 fae6 	bl	101b2c <iprintf>
  101560:	7823      	ldrb	r3, [r4, #0]
  101562:	065b      	lsls	r3, r3, #25
  101564:	0f9b      	lsrs	r3, r3, #30
  101566:	d109      	bne.n	10157c <KBD_RequestHandler+0x2c>
  101568:	7863      	ldrb	r3, [r4, #1]
  10156a:	2b06      	cmp	r3, #6
  10156c:	d017      	beq.n	10159e <KBD_RequestHandler+0x4e>
  10156e:	1c30      	adds	r0, r6, #0
  101570:	f7fe ff08 	bl	100384 <STD_RequestHandler>
  101574:	b002      	add	sp, #8
  101576:	bc70      	pop	{r4, r5, r6}
  101578:	bc01      	pop	{r0}
  10157a:	4700      	bx	r0
  10157c:	7861      	ldrb	r1, [r4, #1]
  10157e:	2902      	cmp	r1, #2
  101580:	d03d      	beq.n	1015fe <KBD_RequestHandler+0xae>
  101582:	d827      	bhi.n	1015d4 <KBD_RequestHandler+0x84>
  101584:	2901      	cmp	r1, #1
  101586:	d076      	beq.n	101676 <KBD_RequestHandler+0x126>
  101588:	484c      	ldr	r0, [pc, #304]	; (1016bc <KBD_RequestHandler+0x16c>)
  10158a:	f000 facf 	bl	101b2c <iprintf>
  10158e:	682b      	ldr	r3, [r5, #0]
  101590:	695b      	ldr	r3, [r3, #20]
  101592:	1c28      	adds	r0, r5, #0
  101594:	68db      	ldr	r3, [r3, #12]
  101596:	2100      	movs	r1, #0
  101598:	f000 f8a8 	bl	1016ec <KBD_RequestHandler+0x19c>
  10159c:	e7ea      	b.n	101574 <KBD_RequestHandler+0x24>
  10159e:	78e3      	ldrb	r3, [r4, #3]
  1015a0:	2b21      	cmp	r3, #33	; 0x21
  1015a2:	d03d      	beq.n	101620 <KBD_RequestHandler+0xd0>
  1015a4:	2b22      	cmp	r3, #34	; 0x22
  1015a6:	d1e2      	bne.n	10156e <KBD_RequestHandler+0x1e>
  1015a8:	4845      	ldr	r0, [pc, #276]	; (1016c0 <KBD_RequestHandler+0x170>)
  1015aa:	f000 fabf 	bl	101b2c <iprintf>
  1015ae:	79e3      	ldrb	r3, [r4, #7]
  1015b0:	79a2      	ldrb	r2, [r4, #6]
  1015b2:	6829      	ldr	r1, [r5, #0]
  1015b4:	021b      	lsls	r3, r3, #8
  1015b6:	6949      	ldr	r1, [r1, #20]
  1015b8:	4313      	orrs	r3, r2
  1015ba:	2b39      	cmp	r3, #57	; 0x39
  1015bc:	d900      	bls.n	1015c0 <KBD_RequestHandler+0x70>
  1015be:	2339      	movs	r3, #57	; 0x39
  1015c0:	2200      	movs	r2, #0
  1015c2:	9200      	str	r2, [sp, #0]
  1015c4:	9201      	str	r2, [sp, #4]
  1015c6:	1c28      	adds	r0, r5, #0
  1015c8:	684c      	ldr	r4, [r1, #4]
  1015ca:	4a3e      	ldr	r2, [pc, #248]	; (1016c4 <KBD_RequestHandler+0x174>)
  1015cc:	2100      	movs	r1, #0
  1015ce:	f000 f88e 	bl	1016ee <KBD_RequestHandler+0x19e>
  1015d2:	e7cf      	b.n	101574 <KBD_RequestHandler+0x24>
  1015d4:	2909      	cmp	r1, #9
  1015d6:	d03a      	beq.n	10164e <KBD_RequestHandler+0xfe>
  1015d8:	290a      	cmp	r1, #10
  1015da:	d1d5      	bne.n	101588 <KBD_RequestHandler+0x38>
  1015dc:	78e1      	ldrb	r1, [r4, #3]
  1015de:	483a      	ldr	r0, [pc, #232]	; (1016c8 <KBD_RequestHandler+0x178>)
  1015e0:	83b1      	strh	r1, [r6, #28]
  1015e2:	f000 faa3 	bl	101b2c <iprintf>
  1015e6:	682b      	ldr	r3, [r5, #0]
  1015e8:	695a      	ldr	r2, [r3, #20]
  1015ea:	2300      	movs	r3, #0
  1015ec:	9300      	str	r3, [sp, #0]
  1015ee:	9301      	str	r3, [sp, #4]
  1015f0:	1c28      	adds	r0, r5, #0
  1015f2:	6854      	ldr	r4, [r2, #4]
  1015f4:	2100      	movs	r1, #0
  1015f6:	2200      	movs	r2, #0
  1015f8:	f000 f879 	bl	1016ee <KBD_RequestHandler+0x19e>
  1015fc:	e7ba      	b.n	101574 <KBD_RequestHandler+0x24>
  1015fe:	4833      	ldr	r0, [pc, #204]	; (1016cc <KBD_RequestHandler+0x17c>)
  101600:	f000 fa94 	bl	101b2c <iprintf>
  101604:	682b      	ldr	r3, [r5, #0]
  101606:	1c32      	adds	r2, r6, #0
  101608:	6959      	ldr	r1, [r3, #20]
  10160a:	321c      	adds	r2, #28
  10160c:	2300      	movs	r3, #0
  10160e:	9300      	str	r3, [sp, #0]
  101610:	9301      	str	r3, [sp, #4]
  101612:	1c28      	adds	r0, r5, #0
  101614:	684c      	ldr	r4, [r1, #4]
  101616:	2301      	movs	r3, #1
  101618:	2100      	movs	r1, #0
  10161a:	f000 f868 	bl	1016ee <KBD_RequestHandler+0x19e>
  10161e:	e7a9      	b.n	101574 <KBD_RequestHandler+0x24>
  101620:	482b      	ldr	r0, [pc, #172]	; (1016d0 <KBD_RequestHandler+0x180>)
  101622:	f000 fa83 	bl	101b2c <iprintf>
  101626:	79e3      	ldrb	r3, [r4, #7]
  101628:	79a2      	ldrb	r2, [r4, #6]
  10162a:	6829      	ldr	r1, [r5, #0]
  10162c:	021b      	lsls	r3, r3, #8
  10162e:	6949      	ldr	r1, [r1, #20]
  101630:	4313      	orrs	r3, r2
  101632:	2b09      	cmp	r3, #9
  101634:	d900      	bls.n	101638 <KBD_RequestHandler+0xe8>
  101636:	2309      	movs	r3, #9
  101638:	2200      	movs	r2, #0
  10163a:	9200      	str	r2, [sp, #0]
  10163c:	9201      	str	r2, [sp, #4]
  10163e:	4a25      	ldr	r2, [pc, #148]	; (1016d4 <KBD_RequestHandler+0x184>)
  101640:	684c      	ldr	r4, [r1, #4]
  101642:	1c28      	adds	r0, r5, #0
  101644:	2100      	movs	r1, #0
  101646:	3212      	adds	r2, #18
  101648:	f000 f851 	bl	1016ee <KBD_RequestHandler+0x19e>
  10164c:	e792      	b.n	101574 <KBD_RequestHandler+0x24>
  10164e:	4822      	ldr	r0, [pc, #136]	; (1016d8 <KBD_RequestHandler+0x188>)
  101650:	f000 fa6c 	bl	101b2c <iprintf>
  101654:	78e3      	ldrb	r3, [r4, #3]
  101656:	2b02      	cmp	r3, #2
  101658:	d199      	bne.n	10158e <KBD_RequestHandler+0x3e>
  10165a:	682b      	ldr	r3, [r5, #0]
  10165c:	491f      	ldr	r1, [pc, #124]	; (1016dc <KBD_RequestHandler+0x18c>)
  10165e:	695b      	ldr	r3, [r3, #20]
  101660:	9100      	str	r1, [sp, #0]
  101662:	9601      	str	r6, [sp, #4]
  101664:	1c32      	adds	r2, r6, #0
  101666:	689c      	ldr	r4, [r3, #8]
  101668:	3222      	adds	r2, #34	; 0x22
  10166a:	1c28      	adds	r0, r5, #0
  10166c:	2100      	movs	r1, #0
  10166e:	2301      	movs	r3, #1
  101670:	f000 f83d 	bl	1016ee <KBD_RequestHandler+0x19e>
  101674:	e77e      	b.n	101574 <KBD_RequestHandler+0x24>
  101676:	481a      	ldr	r0, [pc, #104]	; (1016e0 <KBD_RequestHandler+0x190>)
  101678:	f000 fa58 	bl	101b2c <iprintf>
  10167c:	78e3      	ldrb	r3, [r4, #3]
  10167e:	2b01      	cmp	r3, #1
  101680:	d009      	beq.n	101696 <KBD_RequestHandler+0x146>
  101682:	2b02      	cmp	r3, #2
  101684:	d183      	bne.n	10158e <KBD_RequestHandler+0x3e>
  101686:	4817      	ldr	r0, [pc, #92]	; (1016e4 <KBD_RequestHandler+0x194>)
  101688:	f000 fa50 	bl	101b2c <iprintf>
  10168c:	682b      	ldr	r3, [r5, #0]
  10168e:	1c32      	adds	r2, r6, #0
  101690:	6959      	ldr	r1, [r3, #20]
  101692:	3222      	adds	r2, #34	; 0x22
  101694:	e7ba      	b.n	10160c <KBD_RequestHandler+0xbc>
  101696:	4814      	ldr	r0, [pc, #80]	; (1016e8 <KBD_RequestHandler+0x198>)
  101698:	f000 fa48 	bl	101b2c <iprintf>
  10169c:	682b      	ldr	r3, [r5, #0]
  10169e:	6959      	ldr	r1, [r3, #20]
  1016a0:	2300      	movs	r3, #0
  1016a2:	9300      	str	r3, [sp, #0]
  1016a4:	9301      	str	r3, [sp, #4]
  1016a6:	1c32      	adds	r2, r6, #0
  1016a8:	684c      	ldr	r4, [r1, #4]
  1016aa:	321e      	adds	r2, #30
  1016ac:	1c28      	adds	r0, r5, #0
  1016ae:	2100      	movs	r1, #0
  1016b0:	2304      	movs	r3, #4
  1016b2:	f000 f81c 	bl	1016ee <KBD_RequestHandler+0x19e>
  1016b6:	e75d      	b.n	101574 <KBD_RequestHandler+0x24>
  1016b8:	00104944 	.word	0x00104944
  1016bc:	00104994 	.word	0x00104994
  1016c0:	0010494c 	.word	0x0010494c
  1016c4:	00104a88 	.word	0x00104a88
  1016c8:	00104964 	.word	0x00104964
  1016cc:	0010495c 	.word	0x0010495c
  1016d0:	00104954 	.word	0x00104954
  1016d4:	00104a4c 	.word	0x00104a4c
  1016d8:	00104988 	.word	0x00104988
  1016dc:	00101515 	.word	0x00101515
  1016e0:	00104970 	.word	0x00104970
  1016e4:	00104980 	.word	0x00104980
  1016e8:	0010497c 	.word	0x0010497c
  1016ec:	4718      	bx	r3
  1016ee:	4720      	bx	r4

001016f0 <KBD_Init>:
  1016f0:	b538      	push	{r3, r4, r5, lr}
  1016f2:	1c03      	adds	r3, r0, #0
  1016f4:	2400      	movs	r4, #0
  1016f6:	2000      	movs	r0, #0
  1016f8:	839c      	strh	r4, [r3, #28]
  1016fa:	2420      	movs	r4, #32
  1016fc:	77d8      	strb	r0, [r3, #31]
  1016fe:	5518      	strb	r0, [r3, r4]
  101700:	2421      	movs	r4, #33	; 0x21
  101702:	5518      	strb	r0, [r3, r4]
  101704:	7798      	strb	r0, [r3, #30]
  101706:	2022      	movs	r0, #34	; 0x22
  101708:	5c1c      	ldrb	r4, [r3, r0]
  10170a:	2507      	movs	r5, #7
  10170c:	43ac      	bics	r4, r5
  10170e:	541c      	strb	r4, [r3, r0]
  101710:	625a      	str	r2, [r3, #36]	; 0x24
  101712:	4a06      	ldr	r2, [pc, #24]	; (10172c <KBD_Init+0x3c>)
  101714:	6019      	str	r1, [r3, #0]
  101716:	605a      	str	r2, [r3, #4]
  101718:	680b      	ldr	r3, [r1, #0]
  10171a:	695b      	ldr	r3, [r3, #20]
  10171c:	1c08      	adds	r0, r1, #0
  10171e:	681b      	ldr	r3, [r3, #0]
  101720:	f000 f806 	bl	101730 <KBD_Init+0x40>
  101724:	bc38      	pop	{r3, r4, r5}
  101726:	bc01      	pop	{r0}
  101728:	4700      	bx	r0
  10172a:	46c0      	nop			; (mov r8, r8)
  10172c:	00104a78 	.word	0x00104a78
  101730:	4718      	bx	r3
  101732:	46c0      	nop			; (mov r8, r8)

00101734 <KBD_SendReport>:
  101734:	b530      	push	{r4, r5, lr}
  101736:	6805      	ldr	r5, [r0, #0]
  101738:	682b      	ldr	r3, [r5, #0]
  10173a:	b083      	sub	sp, #12
  10173c:	695c      	ldr	r4, [r3, #20]
  10173e:	9100      	str	r1, [sp, #0]
  101740:	9201      	str	r2, [sp, #4]
  101742:	1c03      	adds	r3, r0, #0
  101744:	331e      	adds	r3, #30
  101746:	1c28      	adds	r0, r5, #0
  101748:	1c1a      	adds	r2, r3, #0
  10174a:	6864      	ldr	r4, [r4, #4]
  10174c:	2101      	movs	r1, #1
  10174e:	2304      	movs	r3, #4
  101750:	f000 f804 	bl	10175c <KBD_SendReport+0x28>
  101754:	b003      	add	sp, #12
  101756:	bc30      	pop	{r4, r5}
  101758:	bc02      	pop	{r1}
  10175a:	4708      	bx	r1
  10175c:	4720      	bx	r4
  10175e:	46c0      	nop			; (mov r8, r8)

00101760 <KBD_ReceiveReport>:
  101760:	b530      	push	{r4, r5, lr}
  101762:	6805      	ldr	r5, [r0, #0]
  101764:	682b      	ldr	r3, [r5, #0]
  101766:	b083      	sub	sp, #12
  101768:	695c      	ldr	r4, [r3, #20]
  10176a:	9100      	str	r1, [sp, #0]
  10176c:	9201      	str	r2, [sp, #4]
  10176e:	1c03      	adds	r3, r0, #0
  101770:	3322      	adds	r3, #34	; 0x22
  101772:	1c28      	adds	r0, r5, #0
  101774:	1c1a      	adds	r2, r3, #0
  101776:	68a4      	ldr	r4, [r4, #8]
  101778:	2102      	movs	r1, #2
  10177a:	2301      	movs	r3, #1
  10177c:	f000 f804 	bl	101788 <KBD_ReceiveReport+0x28>
  101780:	b003      	add	sp, #12
  101782:	bc30      	pop	{r4, r5}
  101784:	bc02      	pop	{r1}
  101786:	4708      	bx	r1
  101788:	4720      	bx	r4
  10178a:	46c0      	nop			; (mov r8, r8)

0010178c <ISR_Driver>:
  10178c:	b508      	push	{r3, lr}
  10178e:	4b04      	ldr	r3, [pc, #16]	; (1017a0 <ISR_Driver+0x14>)
  101790:	695b      	ldr	r3, [r3, #20]
  101792:	4804      	ldr	r0, [pc, #16]	; (1017a4 <ISR_Driver+0x18>)
  101794:	6a9b      	ldr	r3, [r3, #40]	; 0x28
  101796:	f000 f807 	bl	1017a8 <ISR_Driver+0x1c>
  10179a:	bc08      	pop	{r3}
  10179c:	bc01      	pop	{r0}
  10179e:	4700      	bx	r0
  1017a0:	001048d4 	.word	0x001048d4
  1017a4:	00104af0 	.word	0x00104af0
  1017a8:	4718      	bx	r3
  1017aa:	46c0      	nop			; (mov r8, r8)

001017ac <ISR_VBus>:
  1017ac:	b508      	push	{r3, lr}
  1017ae:	4b05      	ldr	r3, [pc, #20]	; (1017c4 <ISR_VBus+0x18>)
  1017b0:	695b      	ldr	r3, [r3, #20]
  1017b2:	4805      	ldr	r0, [pc, #20]	; (1017c8 <ISR_VBus+0x1c>)
  1017b4:	69db      	ldr	r3, [r3, #28]
  1017b6:	f000 f80b 	bl	1017d0 <ISR_VBus+0x24>
  1017ba:	4b04      	ldr	r3, [pc, #16]	; (1017cc <ISR_VBus+0x20>)
  1017bc:	6cdb      	ldr	r3, [r3, #76]	; 0x4c
  1017be:	bc08      	pop	{r3}
  1017c0:	bc01      	pop	{r0}
  1017c2:	4700      	bx	r0
  1017c4:	001048d4 	.word	0x001048d4
  1017c8:	00104af0 	.word	0x00104af0
  1017cc:	fffff400 	.word	0xfffff400
  1017d0:	4718      	bx	r3
  1017d2:	46c0      	nop			; (mov r8, r8)

001017d4 <CBK_Suspend>:
  1017d4:	4b03      	ldr	r3, [pc, #12]	; (1017e4 <CBK_Suspend+0x10>)
  1017d6:	2201      	movs	r2, #1
  1017d8:	631a      	str	r2, [r3, #48]	; 0x30
  1017da:	2202      	movs	r2, #2
  1017dc:	631a      	str	r2, [r3, #48]	; 0x30
  1017de:	2204      	movs	r2, #4
  1017e0:	631a      	str	r2, [r3, #48]	; 0x30
  1017e2:	4770      	bx	lr
  1017e4:	fffff400 	.word	0xfffff400

001017e8 <CBK_Resume>:
  1017e8:	4b07      	ldr	r3, [pc, #28]	; (101808 <CBK_Resume+0x20>)
  1017ea:	2204      	movs	r2, #4
  1017ec:	611a      	str	r2, [r3, #16]
  1017ee:	4b07      	ldr	r3, [pc, #28]	; (10180c <CBK_Resume+0x24>)
  1017f0:	2001      	movs	r0, #1
  1017f2:	2102      	movs	r1, #2
  1017f4:	6018      	str	r0, [r3, #0]
  1017f6:	6118      	str	r0, [r3, #16]
  1017f8:	6019      	str	r1, [r3, #0]
  1017fa:	6119      	str	r1, [r3, #16]
  1017fc:	601a      	str	r2, [r3, #0]
  1017fe:	611a      	str	r2, [r3, #16]
  101800:	6358      	str	r0, [r3, #52]	; 0x34
  101802:	6319      	str	r1, [r3, #48]	; 0x30
  101804:	631a      	str	r2, [r3, #48]	; 0x30
  101806:	4770      	bx	lr
  101808:	fffffc00 	.word	0xfffffc00
  10180c:	fffff400 	.word	0xfffff400

00101810 <ReportReceived>:
  101810:	b500      	push	{lr}
  101812:	4a07      	ldr	r2, [pc, #28]	; (101830 <ReportReceived+0x20>)
  101814:	2322      	movs	r3, #34	; 0x22
  101816:	5cd3      	ldrb	r3, [r2, r3]
  101818:	07da      	lsls	r2, r3, #31
  10181a:	d404      	bmi.n	101826 <ReportReceived+0x16>
  10181c:	4b05      	ldr	r3, [pc, #20]	; (101834 <ReportReceived+0x24>)
  10181e:	2204      	movs	r2, #4
  101820:	631a      	str	r2, [r3, #48]	; 0x30
  101822:	bc01      	pop	{r0}
  101824:	4700      	bx	r0
  101826:	4b03      	ldr	r3, [pc, #12]	; (101834 <ReportReceived+0x24>)
  101828:	2204      	movs	r2, #4
  10182a:	635a      	str	r2, [r3, #52]	; 0x34
  10182c:	e7f9      	b.n	101822 <ReportReceived+0x12>
  10182e:	46c0      	nop			; (mov r8, r8)
  101830:	00200a14 	.word	0x00200a14
  101834:	fffff400 	.word	0xfffff400

00101838 <TimerTick>:
  101838:	b510      	push	{r4, lr}
  10183a:	4a0f      	ldr	r2, [pc, #60]	; (101878 <TimerTick+0x40>)
  10183c:	6813      	ldr	r3, [r2, #0]
  10183e:	3301      	adds	r3, #1
  101840:	6013      	str	r3, [r2, #0]
  101842:	4c0e      	ldr	r4, [pc, #56]	; (10187c <TimerTick+0x44>)
  101844:	8ba2      	ldrh	r2, [r4, #28]
  101846:	b082      	sub	sp, #8
  101848:	0092      	lsls	r2, r2, #2
  10184a:	4293      	cmp	r3, r2
  10184c:	d206      	bcs.n	10185c <TimerTick+0x24>
  10184e:	4b0c      	ldr	r3, [pc, #48]	; (101880 <TimerTick+0x48>)
  101850:	6a1b      	ldr	r3, [r3, #32]
  101852:	9301      	str	r3, [sp, #4]
  101854:	b002      	add	sp, #8
  101856:	bc10      	pop	{r4}
  101858:	bc01      	pop	{r0}
  10185a:	4700      	bx	r0
  10185c:	4809      	ldr	r0, [pc, #36]	; (101884 <TimerTick+0x4c>)
  10185e:	f000 f965 	bl	101b2c <iprintf>
  101862:	4b07      	ldr	r3, [pc, #28]	; (101880 <TimerTick+0x48>)
  101864:	2202      	movs	r2, #2
  101866:	601a      	str	r2, [r3, #0]
  101868:	1c20      	adds	r0, r4, #0
  10186a:	2100      	movs	r1, #0
  10186c:	2200      	movs	r2, #0
  10186e:	f7ff ff61 	bl	101734 <KBD_SendReport>
  101872:	2800      	cmp	r0, #0
  101874:	d1f8      	bne.n	101868 <TimerTick+0x30>
  101876:	e7ea      	b.n	10184e <TimerTick+0x16>
  101878:	00200a3c 	.word	0x00200a3c
  10187c:	00200a14 	.word	0x00200a14
  101880:	fffa0000 	.word	0xfffa0000
  101884:	001049c4 	.word	0x001049c4

00101888 <CBK_NewRequest>:
  101888:	b508      	push	{r3, lr}
  10188a:	4803      	ldr	r0, [pc, #12]	; (101898 <CBK_NewRequest+0x10>)
  10188c:	f7ff fe60 	bl	101550 <KBD_RequestHandler>
  101890:	bc08      	pop	{r3}
  101892:	bc01      	pop	{r0}
  101894:	4700      	bx	r0
  101896:	46c0      	nop			; (mov r8, r8)
  101898:	00200a14 	.word	0x00200a14

0010189c <CBK_Init>:
  10189c:	b5f0      	push	{r4, r5, r6, r7, lr}
  10189e:	4647      	mov	r7, r8
  1018a0:	b480      	push	{r7}
  1018a2:	6801      	ldr	r1, [r0, #0]
  1018a4:	68ca      	ldr	r2, [r1, #12]
  1018a6:	1c10      	adds	r0, r2, #0
  1018a8:	4c15      	ldr	r4, [pc, #84]	; (101900 <CBK_Init+0x64>)
  1018aa:	3020      	adds	r0, #32
  1018ac:	0080      	lsls	r0, r0, #2
  1018ae:	5903      	ldr	r3, [r0, r4]
  1018b0:	4d14      	ldr	r5, [pc, #80]	; (101904 <CBK_Init+0x68>)
  1018b2:	2301      	movs	r3, #1
  1018b4:	2692      	movs	r6, #146	; 0x92
  1018b6:	4093      	lsls	r3, r2
  1018b8:	0076      	lsls	r6, r6, #1
  1018ba:	51a3      	str	r3, [r4, r6]
  1018bc:	0092      	lsls	r2, r2, #2
  1018be:	5105      	str	r5, [r0, r4]
  1018c0:	2500      	movs	r5, #0
  1018c2:	5115      	str	r5, [r2, r4]
  1018c4:	2794      	movs	r7, #148	; 0x94
  1018c6:	2290      	movs	r2, #144	; 0x90
  1018c8:	007f      	lsls	r7, r7, #1
  1018ca:	0052      	lsls	r2, r2, #1
  1018cc:	51e3      	str	r3, [r4, r7]
  1018ce:	6808      	ldr	r0, [r1, #0]
  1018d0:	50a3      	str	r3, [r4, r2]
  1018d2:	4690      	mov	r8, r2
  1018d4:	f7fe fcd2 	bl	10027c <BRD_ConfigureVBus>
  1018d8:	2288      	movs	r2, #136	; 0x88
  1018da:	490b      	ldr	r1, [pc, #44]	; (101908 <CBK_Init+0x6c>)
  1018dc:	58a3      	ldr	r3, [r4, r2]
  1018de:	2304      	movs	r3, #4
  1018e0:	51a3      	str	r3, [r4, r6]
  1018e2:	50a1      	str	r1, [r4, r2]
  1018e4:	4a09      	ldr	r2, [pc, #36]	; (10190c <CBK_Init+0x70>)
  1018e6:	2180      	movs	r1, #128	; 0x80
  1018e8:	0189      	lsls	r1, r1, #6
  1018ea:	60a5      	str	r5, [r4, #8]
  1018ec:	51e3      	str	r3, [r4, r7]
  1018ee:	6411      	str	r1, [r2, #64]	; 0x40
  1018f0:	4642      	mov	r2, r8
  1018f2:	50a3      	str	r3, [r4, r2]
  1018f4:	bc04      	pop	{r2}
  1018f6:	4690      	mov	r8, r2
  1018f8:	bcf0      	pop	{r4, r5, r6, r7}
  1018fa:	bc01      	pop	{r0}
  1018fc:	4700      	bx	r0
  1018fe:	46c0      	nop			; (mov r8, r8)
  101900:	fffff000 	.word	0xfffff000
  101904:	0010178d 	.word	0x0010178d
  101908:	001017ad 	.word	0x001017ad
  10190c:	fffff400 	.word	0xfffff400

00101910 <ResetTimer>:
  101910:	b500      	push	{lr}
  101912:	4b08      	ldr	r3, [pc, #32]	; (101934 <ResetTimer+0x24>)
  101914:	8b9b      	ldrh	r3, [r3, #28]
  101916:	2b00      	cmp	r3, #0
  101918:	d009      	beq.n	10192e <ResetTimer+0x1e>
  10191a:	4b07      	ldr	r3, [pc, #28]	; (101938 <ResetTimer+0x28>)
  10191c:	2200      	movs	r2, #0
  10191e:	601a      	str	r2, [r3, #0]
  101920:	4b06      	ldr	r3, [pc, #24]	; (10193c <ResetTimer+0x2c>)
  101922:	4a07      	ldr	r2, [pc, #28]	; (101940 <ResetTimer+0x30>)
  101924:	61da      	str	r2, [r3, #28]
  101926:	2201      	movs	r2, #1
  101928:	601a      	str	r2, [r3, #0]
  10192a:	2204      	movs	r2, #4
  10192c:	601a      	str	r2, [r3, #0]
  10192e:	bc01      	pop	{r0}
  101930:	4700      	bx	r0
  101932:	46c0      	nop			; (mov r8, r8)
  101934:	00200a14 	.word	0x00200a14
  101938:	00200a3c 	.word	0x00200a3c
  10193c:	fffa0000 	.word	0xfffa0000
  101940:	00005dc0 	.word	0x00005dc0

00101944 <main>:
  101944:	b5f8      	push	{r3, r4, r5, r6, r7, lr}
  101946:	465f      	mov	r7, fp
  101948:	4656      	mov	r6, sl
  10194a:	464d      	mov	r5, r9
  10194c:	4644      	mov	r4, r8
  10194e:	b4f0      	push	{r4, r5, r6, r7}
  101950:	4b61      	ldr	r3, [pc, #388]	; (101ad8 <main+0x194>)
  101952:	681b      	ldr	r3, [r3, #0]
  101954:	2100      	movs	r1, #0
  101956:	6898      	ldr	r0, [r3, #8]
  101958:	2202      	movs	r2, #2
  10195a:	1c0b      	adds	r3, r1, #0
  10195c:	f000 f906 	bl	101b6c <setvbuf>
  101960:	4d5e      	ldr	r5, [pc, #376]	; (101adc <main+0x198>)
  101962:	4b5f      	ldr	r3, [pc, #380]	; (101ae0 <main+0x19c>)
  101964:	22c0      	movs	r2, #192	; 0xc0
  101966:	2400      	movs	r4, #0
  101968:	2602      	movs	r6, #2
  10196a:	00d2      	lsls	r2, r2, #3
  10196c:	612e      	str	r6, [r5, #16]
  10196e:	671a      	str	r2, [r3, #112]	; 0x70
  101970:	675c      	str	r4, [r3, #116]	; 0x74
  101972:	605a      	str	r2, [r3, #4]
  101974:	4a5b      	ldr	r2, [pc, #364]	; (101ae4 <main+0x1a0>)
  101976:	2301      	movs	r3, #1
  101978:	425b      	negs	r3, r3
  10197a:	60d3      	str	r3, [r2, #12]
  10197c:	23ac      	movs	r3, #172	; 0xac
  10197e:	6013      	str	r3, [r2, #0]
  101980:	231a      	movs	r3, #26
  101982:	6213      	str	r3, [r2, #32]
  101984:	2080      	movs	r0, #128	; 0x80
  101986:	4b58      	ldr	r3, [pc, #352]	; (101ae8 <main+0x1a4>)
  101988:	40b0      	lsls	r0, r6
  10198a:	2180      	movs	r1, #128	; 0x80
  10198c:	6294      	str	r4, [r2, #40]	; 0x28
  10198e:	0049      	lsls	r1, r1, #1
  101990:	621e      	str	r6, [r3, #32]
  101992:	6218      	str	r0, [r3, #32]
  101994:	2001      	movs	r0, #1
  101996:	619c      	str	r4, [r3, #24]
  101998:	61dc      	str	r4, [r3, #28]
  10199a:	611c      	str	r4, [r3, #16]
  10199c:	615c      	str	r4, [r3, #20]
  10199e:	609c      	str	r4, [r3, #8]
  1019a0:	60dc      	str	r4, [r3, #12]
  1019a2:	5054      	str	r4, [r2, r1]
  1019a4:	605c      	str	r4, [r3, #4]
  1019a6:	6218      	str	r0, [r3, #32]
  1019a8:	6219      	str	r1, [r3, #32]
  1019aa:	238c      	movs	r3, #140	; 0x8c
  1019ac:	011b      	lsls	r3, r3, #4
  1019ae:	6053      	str	r3, [r2, #4]
  1019b0:	2710      	movs	r7, #16
  1019b2:	2340      	movs	r3, #64	; 0x40
  1019b4:	6013      	str	r3, [r2, #0]
  1019b6:	484d      	ldr	r0, [pc, #308]	; (101aec <main+0x1a8>)
  1019b8:	6017      	str	r7, [r2, #0]
  1019ba:	f000 f8b7 	bl	101b2c <iprintf>
  1019be:	4b4c      	ldr	r3, [pc, #304]	; (101af0 <main+0x1ac>)
  1019c0:	2280      	movs	r2, #128	; 0x80
  1019c2:	21c0      	movs	r1, #192	; 0xc0
  1019c4:	0152      	lsls	r2, r2, #5
  1019c6:	0209      	lsls	r1, r1, #8
  1019c8:	612a      	str	r2, [r5, #16]
  1019ca:	6059      	str	r1, [r3, #4]
  1019cc:	625f      	str	r7, [r3, #36]	; 0x24
  1019ce:	4b49      	ldr	r3, [pc, #292]	; (101af4 <main+0x1b0>)
  1019d0:	21b0      	movs	r1, #176	; 0xb0
  1019d2:	5858      	ldr	r0, [r3, r1]
  1019d4:	2092      	movs	r0, #146	; 0x92
  1019d6:	0040      	lsls	r0, r0, #1
  1019d8:	501a      	str	r2, [r3, r0]
  1019da:	4847      	ldr	r0, [pc, #284]	; (101af8 <main+0x1b4>)
  1019dc:	5058      	str	r0, [r3, r1]
  1019de:	2194      	movs	r1, #148	; 0x94
  1019e0:	0049      	lsls	r1, r1, #1
  1019e2:	631c      	str	r4, [r3, #48]	; 0x30
  1019e4:	505a      	str	r2, [r3, r1]
  1019e6:	2190      	movs	r1, #144	; 0x90
  1019e8:	0049      	lsls	r1, r1, #1
  1019ea:	4f44      	ldr	r7, [pc, #272]	; (101afc <main+0x1b8>)
  1019ec:	4d44      	ldr	r5, [pc, #272]	; (101b00 <main+0x1bc>)
  1019ee:	505a      	str	r2, [r3, r1]
  1019f0:	4944      	ldr	r1, [pc, #272]	; (101b04 <main+0x1c0>)
  1019f2:	1c28      	adds	r0, r5, #0
  1019f4:	1c3a      	adds	r2, r7, #0
  1019f6:	4688      	mov	r8, r1
  1019f8:	f7ff fe7a 	bl	1016f0 <KBD_Init>
  1019fc:	4842      	ldr	r0, [pc, #264]	; (101b08 <main+0x1c4>)
  1019fe:	f000 f895 	bl	101b2c <iprintf>
  101a02:	4c42      	ldr	r4, [pc, #264]	; (101b0c <main+0x1c8>)
  101a04:	6823      	ldr	r3, [r4, #0]
  101a06:	4233      	tst	r3, r6
  101a08:	d0fc      	beq.n	101a04 <main+0xc0>
  101a0a:	4b41      	ldr	r3, [pc, #260]	; (101b10 <main+0x1cc>)
  101a0c:	695b      	ldr	r3, [r3, #20]
  101a0e:	4640      	mov	r0, r8
  101a10:	6adb      	ldr	r3, [r3, #44]	; 0x2c
  101a12:	f000 f889 	bl	101b28 <main+0x1e4>
  101a16:	483f      	ldr	r0, [pc, #252]	; (101b14 <main+0x1d0>)
  101a18:	f000 f888 	bl	101b2c <iprintf>
  101a1c:	2310      	movs	r3, #16
  101a1e:	6822      	ldr	r2, [r4, #0]
  101a20:	421a      	tst	r2, r3
  101a22:	d0fc      	beq.n	101a1e <main+0xda>
  101a24:	1c28      	adds	r0, r5, #0
  101a26:	1c39      	adds	r1, r7, #0
  101a28:	2200      	movs	r2, #0
  101a2a:	f7ff fe99 	bl	101760 <KBD_ReceiveReport>
  101a2e:	2800      	cmp	r0, #0
  101a30:	d1f8      	bne.n	101a24 <main+0xe0>
  101a32:	4a39      	ldr	r2, [pc, #228]	; (101b18 <main+0x1d4>)
  101a34:	4c39      	ldr	r4, [pc, #228]	; (101b1c <main+0x1d8>)
  101a36:	4e2a      	ldr	r6, [pc, #168]	; (101ae0 <main+0x19c>)
  101a38:	4690      	mov	r8, r2
  101a3a:	4681      	mov	r9, r0
  101a3c:	2300      	movs	r3, #0
  101a3e:	2700      	movs	r7, #0
  101a40:	6bf0      	ldr	r0, [r6, #60]	; 0x3c
  101a42:	4641      	mov	r1, r8
  101a44:	469c      	mov	ip, r3
  101a46:	46ba      	mov	sl, r7
  101a48:	c904      	ldmia	r1!, {r2}
  101a4a:	4002      	ands	r2, r0
  101a4c:	1c17      	adds	r7, r2, #0
  101a4e:	427a      	negs	r2, r7
  101a50:	417a      	adcs	r2, r7
  101a52:	5ce7      	ldrb	r7, [r4, r3]
  101a54:	42ba      	cmp	r2, r7
  101a56:	d00b      	beq.n	101a70 <main+0x12c>
  101a58:	2701      	movs	r7, #1
  101a5a:	54e2      	strb	r2, [r4, r3]
  101a5c:	46ba      	mov	sl, r7
  101a5e:	2a00      	cmp	r2, #0
  101a60:	d006      	beq.n	101a70 <main+0x12c>
  101a62:	4667      	mov	r7, ip
  101a64:	19ea      	adds	r2, r5, r7
  101a66:	4f2e      	ldr	r7, [pc, #184]	; (101b20 <main+0x1dc>)
  101a68:	5cff      	ldrb	r7, [r7, r3]
  101a6a:	77d7      	strb	r7, [r2, #31]
  101a6c:	2201      	movs	r2, #1
  101a6e:	4494      	add	ip, r2
  101a70:	3301      	adds	r3, #1
  101a72:	2b03      	cmp	r3, #3
  101a74:	d1e8      	bne.n	101a48 <main+0x104>
  101a76:	2380      	movs	r3, #128	; 0x80
  101a78:	01db      	lsls	r3, r3, #7
  101a7a:	4018      	ands	r0, r3
  101a7c:	4243      	negs	r3, r0
  101a7e:	4158      	adcs	r0, r3
  101a80:	78e3      	ldrb	r3, [r4, #3]
  101a82:	4298      	cmp	r0, r3
  101a84:	d024      	beq.n	101ad0 <main+0x18c>
  101a86:	70e0      	strb	r0, [r4, #3]
  101a88:	2800      	cmp	r0, #0
  101a8a:	d11c      	bne.n	101ac6 <main+0x182>
  101a8c:	7fab      	ldrb	r3, [r5, #30]
  101a8e:	2202      	movs	r2, #2
  101a90:	4393      	bics	r3, r2
  101a92:	77ab      	strb	r3, [r5, #30]
  101a94:	4667      	mov	r7, ip
  101a96:	2f03      	cmp	r7, #3
  101a98:	d806      	bhi.n	101aa8 <main+0x164>
  101a9a:	4663      	mov	r3, ip
  101a9c:	18ea      	adds	r2, r5, r3
  101a9e:	4649      	mov	r1, r9
  101aa0:	3301      	adds	r3, #1
  101aa2:	77d1      	strb	r1, [r2, #31]
  101aa4:	2b04      	cmp	r3, #4
  101aa6:	d1f9      	bne.n	101a9c <main+0x158>
  101aa8:	1c28      	adds	r0, r5, #0
  101aaa:	491e      	ldr	r1, [pc, #120]	; (101b24 <main+0x1e0>)
  101aac:	2200      	movs	r2, #0
  101aae:	f7ff fe41 	bl	101734 <KBD_SendReport>
  101ab2:	2800      	cmp	r0, #0
  101ab4:	d0c2      	beq.n	101a3c <main+0xf8>
  101ab6:	1c28      	adds	r0, r5, #0
  101ab8:	491a      	ldr	r1, [pc, #104]	; (101b24 <main+0x1e0>)
  101aba:	2200      	movs	r2, #0
  101abc:	f7ff fe3a 	bl	101734 <KBD_SendReport>
  101ac0:	2800      	cmp	r0, #0
  101ac2:	d1f1      	bne.n	101aa8 <main+0x164>
  101ac4:	e7ba      	b.n	101a3c <main+0xf8>
  101ac6:	7faa      	ldrb	r2, [r5, #30]
  101ac8:	2302      	movs	r3, #2
  101aca:	4313      	orrs	r3, r2
  101acc:	77ab      	strb	r3, [r5, #30]
  101ace:	e7e1      	b.n	101a94 <main+0x150>
  101ad0:	4653      	mov	r3, sl
  101ad2:	2b00      	cmp	r3, #0
  101ad4:	d0b2      	beq.n	101a3c <main+0xf8>
  101ad6:	e7dd      	b.n	101a94 <main+0x150>
  101ad8:	00200000 	.word	0x00200000
  101adc:	fffffc00 	.word	0xfffffc00
  101ae0:	fffff400 	.word	0xfffff400
  101ae4:	fffff200 	.word	0xfffff200
  101ae8:	fffff300 	.word	0xfffff300
  101aec:	001049d0 	.word	0x001049d0
  101af0:	fffa0000 	.word	0xfffa0000
  101af4:	fffff000 	.word	0xfffff000
  101af8:	00101839 	.word	0x00101839
  101afc:	00101811 	.word	0x00101811
  101b00:	00200a14 	.word	0x00200a14
  101b04:	00104af0 	.word	0x00104af0
  101b08:	001049e8 	.word	0x001049e8
  101b0c:	00200a48 	.word	0x00200a48
  101b10:	001048d4 	.word	0x001048d4
  101b14:	001049f8 	.word	0x001049f8
  101b18:	00104ac8 	.word	0x00104ac8
  101b1c:	00200a10 	.word	0x00200a10
  101b20:	00104ac4 	.word	0x00104ac4
  101b24:	00101911 	.word	0x00101911
  101b28:	4718      	bx	r3
  101b2a:	46c0      	nop			; (mov r8, r8)

00101b2c <iprintf>:
  101b2c:	b40f      	push	{r0, r1, r2, r3}
  101b2e:	b500      	push	{lr}
  101b30:	4906      	ldr	r1, [pc, #24]	; (101b4c <iprintf+0x20>)
  101b32:	b083      	sub	sp, #12
  101b34:	ab04      	add	r3, sp, #16
  101b36:	6808      	ldr	r0, [r1, #0]
  101b38:	cb04      	ldmia	r3!, {r2}
  101b3a:	6881      	ldr	r1, [r0, #8]
  101b3c:	9301      	str	r3, [sp, #4]
  101b3e:	f000 f8e3 	bl	101d08 <_vfiprintf_r>
  101b42:	b003      	add	sp, #12
  101b44:	bc08      	pop	{r3}
  101b46:	b004      	add	sp, #16
  101b48:	4718      	bx	r3
  101b4a:	46c0      	nop			; (mov r8, r8)
  101b4c:	00200000 	.word	0x00200000

00101b50 <_iprintf_r>:
  101b50:	b40e      	push	{r1, r2, r3}
  101b52:	b500      	push	{lr}
  101b54:	b082      	sub	sp, #8
  101b56:	ab03      	add	r3, sp, #12
  101b58:	cb04      	ldmia	r3!, {r2}
  101b5a:	6881      	ldr	r1, [r0, #8]
  101b5c:	9301      	str	r3, [sp, #4]
  101b5e:	f000 f8d3 	bl	101d08 <_vfiprintf_r>
  101b62:	b002      	add	sp, #8
  101b64:	bc08      	pop	{r3}
  101b66:	b003      	add	sp, #12
  101b68:	4718      	bx	r3
  101b6a:	46c0      	nop			; (mov r8, r8)

00101b6c <setvbuf>:
  101b6c:	b5f8      	push	{r3, r4, r5, r6, r7, lr}
  101b6e:	464f      	mov	r7, r9
  101b70:	4646      	mov	r6, r8
  101b72:	b4c0      	push	{r6, r7}
  101b74:	4d41      	ldr	r5, [pc, #260]	; (101c7c <setvbuf+0x110>)
  101b76:	1c04      	adds	r4, r0, #0
  101b78:	6828      	ldr	r0, [r5, #0]
  101b7a:	4689      	mov	r9, r1
  101b7c:	1c17      	adds	r7, r2, #0
  101b7e:	4698      	mov	r8, r3
  101b80:	2800      	cmp	r0, #0
  101b82:	d002      	beq.n	101b8a <setvbuf+0x1e>
  101b84:	6b83      	ldr	r3, [r0, #56]	; 0x38
  101b86:	2b00      	cmp	r3, #0
  101b88:	d04a      	beq.n	101c20 <setvbuf+0xb4>
  101b8a:	4641      	mov	r1, r8
  101b8c:	2900      	cmp	r1, #0
  101b8e:	db62      	blt.n	101c56 <setvbuf+0xea>
  101b90:	2602      	movs	r6, #2
  101b92:	42be      	cmp	r6, r7
  101b94:	41b6      	sbcs	r6, r6
  101b96:	4276      	negs	r6, r6
  101b98:	2e00      	cmp	r6, #0
  101b9a:	d15c      	bne.n	101c56 <setvbuf+0xea>
  101b9c:	6828      	ldr	r0, [r5, #0]
  101b9e:	1c21      	adds	r1, r4, #0
  101ba0:	f000 fe40 	bl	102824 <_fflush_r>
  101ba4:	89a3      	ldrh	r3, [r4, #12]
  101ba6:	6066      	str	r6, [r4, #4]
  101ba8:	61a6      	str	r6, [r4, #24]
  101baa:	061a      	lsls	r2, r3, #24
  101bac:	d421      	bmi.n	101bf2 <setvbuf+0x86>
  101bae:	2283      	movs	r2, #131	; 0x83
  101bb0:	4393      	bics	r3, r2
  101bb2:	81a3      	strh	r3, [r4, #12]
  101bb4:	2f02      	cmp	r7, #2
  101bb6:	d026      	beq.n	101c06 <setvbuf+0x9a>
  101bb8:	4649      	mov	r1, r9
  101bba:	2900      	cmp	r1, #0
  101bbc:	d03a      	beq.n	101c34 <setvbuf+0xc8>
  101bbe:	2f01      	cmp	r7, #1
  101bc0:	d031      	beq.n	101c26 <setvbuf+0xba>
  101bc2:	682a      	ldr	r2, [r5, #0]
  101bc4:	492e      	ldr	r1, [pc, #184]	; (101c80 <setvbuf+0x114>)
  101bc6:	63d1      	str	r1, [r2, #60]	; 0x3c
  101bc8:	464a      	mov	r2, r9
  101bca:	4641      	mov	r1, r8
  101bcc:	6022      	str	r2, [r4, #0]
  101bce:	6122      	str	r2, [r4, #16]
  101bd0:	6161      	str	r1, [r4, #20]
  101bd2:	2000      	movs	r0, #0
  101bd4:	071a      	lsls	r2, r3, #28
  101bd6:	d506      	bpl.n	101be6 <setvbuf+0x7a>
  101bd8:	2203      	movs	r2, #3
  101bda:	4013      	ands	r3, r2
  101bdc:	425a      	negs	r2, r3
  101bde:	4153      	adcs	r3, r2
  101be0:	425b      	negs	r3, r3
  101be2:	400b      	ands	r3, r1
  101be4:	60a3      	str	r3, [r4, #8]
  101be6:	bc0c      	pop	{r2, r3}
  101be8:	4690      	mov	r8, r2
  101bea:	4699      	mov	r9, r3
  101bec:	bcf8      	pop	{r3, r4, r5, r6, r7}
  101bee:	bc02      	pop	{r1}
  101bf0:	4708      	bx	r1
  101bf2:	6828      	ldr	r0, [r5, #0]
  101bf4:	6921      	ldr	r1, [r4, #16]
  101bf6:	f001 f8a1 	bl	102d3c <_free_r>
  101bfa:	89a3      	ldrh	r3, [r4, #12]
  101bfc:	2283      	movs	r2, #131	; 0x83
  101bfe:	4393      	bics	r3, r2
  101c00:	81a3      	strh	r3, [r4, #12]
  101c02:	2f02      	cmp	r7, #2
  101c04:	d1d8      	bne.n	101bb8 <setvbuf+0x4c>
  101c06:	2000      	movs	r0, #0
  101c08:	2202      	movs	r2, #2
  101c0a:	4313      	orrs	r3, r2
  101c0c:	81a3      	strh	r3, [r4, #12]
  101c0e:	2300      	movs	r3, #0
  101c10:	60a3      	str	r3, [r4, #8]
  101c12:	1c23      	adds	r3, r4, #0
  101c14:	3343      	adds	r3, #67	; 0x43
  101c16:	6023      	str	r3, [r4, #0]
  101c18:	6123      	str	r3, [r4, #16]
  101c1a:	2301      	movs	r3, #1
  101c1c:	6163      	str	r3, [r4, #20]
  101c1e:	e7e2      	b.n	101be6 <setvbuf+0x7a>
  101c20:	f000 ff1c 	bl	102a5c <__sinit>
  101c24:	e7b1      	b.n	101b8a <setvbuf+0x1e>
  101c26:	2201      	movs	r2, #1
  101c28:	4641      	mov	r1, r8
  101c2a:	4313      	orrs	r3, r2
  101c2c:	424a      	negs	r2, r1
  101c2e:	81a3      	strh	r3, [r4, #12]
  101c30:	61a2      	str	r2, [r4, #24]
  101c32:	e7c6      	b.n	101bc2 <setvbuf+0x56>
  101c34:	4642      	mov	r2, r8
  101c36:	2a00      	cmp	r2, #0
  101c38:	d102      	bne.n	101c40 <setvbuf+0xd4>
  101c3a:	2380      	movs	r3, #128	; 0x80
  101c3c:	00db      	lsls	r3, r3, #3
  101c3e:	4698      	mov	r8, r3
  101c40:	4640      	mov	r0, r8
  101c42:	f001 fc01 	bl	103448 <malloc>
  101c46:	4681      	mov	r9, r0
  101c48:	2800      	cmp	r0, #0
  101c4a:	d007      	beq.n	101c5c <setvbuf+0xf0>
  101c4c:	89a2      	ldrh	r2, [r4, #12]
  101c4e:	2380      	movs	r3, #128	; 0x80
  101c50:	4313      	orrs	r3, r2
  101c52:	81a3      	strh	r3, [r4, #12]
  101c54:	e7b3      	b.n	101bbe <setvbuf+0x52>
  101c56:	2001      	movs	r0, #1
  101c58:	4240      	negs	r0, r0
  101c5a:	e7c4      	b.n	101be6 <setvbuf+0x7a>
  101c5c:	2080      	movs	r0, #128	; 0x80
  101c5e:	00c0      	lsls	r0, r0, #3
  101c60:	f001 fbf2 	bl	103448 <malloc>
  101c64:	4681      	mov	r9, r0
  101c66:	2800      	cmp	r0, #0
  101c68:	d103      	bne.n	101c72 <setvbuf+0x106>
  101c6a:	2001      	movs	r0, #1
  101c6c:	89a3      	ldrh	r3, [r4, #12]
  101c6e:	4240      	negs	r0, r0
  101c70:	e7ca      	b.n	101c08 <setvbuf+0x9c>
  101c72:	2380      	movs	r3, #128	; 0x80
  101c74:	00db      	lsls	r3, r3, #3
  101c76:	4698      	mov	r8, r3
  101c78:	e7e8      	b.n	101c4c <setvbuf+0xe0>
  101c7a:	46c0      	nop			; (mov r8, r8)
  101c7c:	00200000 	.word	0x00200000
  101c80:	001029b9 	.word	0x001029b9

00101c84 <__sprint_r>:
  101c84:	b5f0      	push	{r4, r5, r6, r7, lr}
  101c86:	4657      	mov	r7, sl
  101c88:	464e      	mov	r6, r9
  101c8a:	4645      	mov	r5, r8
  101c8c:	b4e0      	push	{r5, r6, r7}
  101c8e:	6893      	ldr	r3, [r2, #8]
  101c90:	4680      	mov	r8, r0
  101c92:	1c0e      	adds	r6, r1, #0
  101c94:	4691      	mov	r9, r2
  101c96:	2b00      	cmp	r3, #0
  101c98:	d02d      	beq.n	101cf6 <__sprint_r+0x72>
  101c9a:	6e4a      	ldr	r2, [r1, #100]	; 0x64
  101c9c:	0491      	lsls	r1, r2, #18
  101c9e:	d52d      	bpl.n	101cfc <__sprint_r+0x78>
  101ca0:	4649      	mov	r1, r9
  101ca2:	680a      	ldr	r2, [r1, #0]
  101ca4:	4692      	mov	sl, r2
  101ca6:	4652      	mov	r2, sl
  101ca8:	caa0      	ldmia	r2!, {r5, r7}
  101caa:	08bf      	lsrs	r7, r7, #2
  101cac:	2f00      	cmp	r7, #0
  101cae:	dd18      	ble.n	101ce2 <__sprint_r+0x5e>
  101cb0:	2400      	movs	r4, #0
  101cb2:	e002      	b.n	101cba <__sprint_r+0x36>
  101cb4:	3401      	adds	r4, #1
  101cb6:	42a7      	cmp	r7, r4
  101cb8:	d011      	beq.n	101cde <__sprint_r+0x5a>
  101cba:	cd02      	ldmia	r5!, {r1}
  101cbc:	4640      	mov	r0, r8
  101cbe:	1c32      	adds	r2, r6, #0
  101cc0:	f000 ff62 	bl	102b88 <_fputwc_r>
  101cc4:	1c43      	adds	r3, r0, #1
  101cc6:	d1f5      	bne.n	101cb4 <__sprint_r+0x30>
  101cc8:	2300      	movs	r3, #0
  101cca:	464a      	mov	r2, r9
  101ccc:	6093      	str	r3, [r2, #8]
  101cce:	6053      	str	r3, [r2, #4]
  101cd0:	bc1c      	pop	{r2, r3, r4}
  101cd2:	4690      	mov	r8, r2
  101cd4:	4699      	mov	r9, r3
  101cd6:	46a2      	mov	sl, r4
  101cd8:	bcf0      	pop	{r4, r5, r6, r7}
  101cda:	bc02      	pop	{r1}
  101cdc:	4708      	bx	r1
  101cde:	4649      	mov	r1, r9
  101ce0:	688b      	ldr	r3, [r1, #8]
  101ce2:	00bf      	lsls	r7, r7, #2
  101ce4:	1bdb      	subs	r3, r3, r7
  101ce6:	464a      	mov	r2, r9
  101ce8:	2108      	movs	r1, #8
  101cea:	6093      	str	r3, [r2, #8]
  101cec:	448a      	add	sl, r1
  101cee:	2b00      	cmp	r3, #0
  101cf0:	d1d9      	bne.n	101ca6 <__sprint_r+0x22>
  101cf2:	2000      	movs	r0, #0
  101cf4:	e7e8      	b.n	101cc8 <__sprint_r+0x44>
  101cf6:	6053      	str	r3, [r2, #4]
  101cf8:	2000      	movs	r0, #0
  101cfa:	e7e9      	b.n	101cd0 <__sprint_r+0x4c>
  101cfc:	1c31      	adds	r1, r6, #0
  101cfe:	464a      	mov	r2, r9
  101d00:	f001 f8ea 	bl	102ed8 <__sfvwrite_r>
  101d04:	e7e0      	b.n	101cc8 <__sprint_r+0x44>
  101d06:	46c0      	nop			; (mov r8, r8)

00101d08 <_vfiprintf_r>:
  101d08:	b5f0      	push	{r4, r5, r6, r7, lr}
  101d0a:	465f      	mov	r7, fp
  101d0c:	4656      	mov	r6, sl
  101d0e:	464d      	mov	r5, r9
  101d10:	4644      	mov	r4, r8
  101d12:	b4f0      	push	{r4, r5, r6, r7}
  101d14:	4cce      	ldr	r4, [pc, #824]	; (102050 <_vfiprintf_r+0x348>)
  101d16:	44a5      	add	sp, r4
  101d18:	9003      	str	r0, [sp, #12]
  101d1a:	468b      	mov	fp, r1
  101d1c:	1c15      	adds	r5, r2, #0
  101d1e:	9308      	str	r3, [sp, #32]
  101d20:	2800      	cmp	r0, #0
  101d22:	d004      	beq.n	101d2e <_vfiprintf_r+0x26>
  101d24:	6b83      	ldr	r3, [r0, #56]	; 0x38
  101d26:	2b00      	cmp	r3, #0
  101d28:	d101      	bne.n	101d2e <_vfiprintf_r+0x26>
  101d2a:	f000 fc43 	bl	1025b4 <_vfiprintf_r+0x8ac>
  101d2e:	4658      	mov	r0, fp
  101d30:	8982      	ldrh	r2, [r0, #12]
  101d32:	2180      	movs	r1, #128	; 0x80
  101d34:	0189      	lsls	r1, r1, #6
  101d36:	1c13      	adds	r3, r2, #0
  101d38:	420a      	tst	r2, r1
  101d3a:	d106      	bne.n	101d4a <_vfiprintf_r+0x42>
  101d3c:	430a      	orrs	r2, r1
  101d3e:	4bc5      	ldr	r3, [pc, #788]	; (102054 <_vfiprintf_r+0x34c>)
  101d40:	6e41      	ldr	r1, [r0, #100]	; 0x64
  101d42:	8182      	strh	r2, [r0, #12]
  101d44:	400b      	ands	r3, r1
  101d46:	6643      	str	r3, [r0, #100]	; 0x64
  101d48:	1c13      	adds	r3, r2, #0
  101d4a:	0719      	lsls	r1, r3, #28
  101d4c:	d400      	bmi.n	101d50 <_vfiprintf_r+0x48>
  101d4e:	e3c9      	b.n	1024e4 <_vfiprintf_r+0x7dc>
  101d50:	4658      	mov	r0, fp
  101d52:	6901      	ldr	r1, [r0, #16]
  101d54:	2900      	cmp	r1, #0
  101d56:	d100      	bne.n	101d5a <_vfiprintf_r+0x52>
  101d58:	e3c4      	b.n	1024e4 <_vfiprintf_r+0x7dc>
  101d5a:	211a      	movs	r1, #26
  101d5c:	400b      	ands	r3, r1
  101d5e:	2b0a      	cmp	r3, #10
  101d60:	d100      	bne.n	101d64 <_vfiprintf_r+0x5c>
  101d62:	e3ce      	b.n	102502 <_vfiprintf_r+0x7fa>
  101d64:	24a1      	movs	r4, #161	; 0xa1
  101d66:	48bc      	ldr	r0, [pc, #752]	; (102058 <_vfiprintf_r+0x350>)
  101d68:	a9ff      	add	r1, sp, #1020	; 0x3fc
  101d6a:	00e4      	lsls	r4, r4, #3
  101d6c:	446c      	add	r4, sp
  101d6e:	31a4      	adds	r1, #164	; 0xa4
  101d70:	4468      	add	r0, sp
  101d72:	2300      	movs	r3, #0
  101d74:	46aa      	mov	sl, r5
  101d76:	6021      	str	r1, [r4, #0]
  101d78:	2200      	movs	r2, #0
  101d7a:	1c0d      	adds	r5, r1, #0
  101d7c:	1a21      	subs	r1, r4, r0
  101d7e:	60a3      	str	r3, [r4, #8]
  101d80:	6063      	str	r3, [r4, #4]
  101d82:	920c      	str	r2, [sp, #48]	; 0x30
  101d84:	9306      	str	r3, [sp, #24]
  101d86:	9001      	str	r0, [sp, #4]
  101d88:	910d      	str	r1, [sp, #52]	; 0x34
  101d8a:	4657      	mov	r7, sl
  101d8c:	783b      	ldrb	r3, [r7, #0]
  101d8e:	2b00      	cmp	r3, #0
  101d90:	d100      	bne.n	101d94 <_vfiprintf_r+0x8c>
  101d92:	e2eb      	b.n	10236c <_vfiprintf_r+0x664>
  101d94:	2b25      	cmp	r3, #37	; 0x25
  101d96:	d100      	bne.n	101d9a <_vfiprintf_r+0x92>
  101d98:	e2e8      	b.n	10236c <_vfiprintf_r+0x664>
  101d9a:	1c3b      	adds	r3, r7, #0
  101d9c:	e002      	b.n	101da4 <_vfiprintf_r+0x9c>
  101d9e:	2b00      	cmp	r3, #0
  101da0:	d004      	beq.n	101dac <_vfiprintf_r+0xa4>
  101da2:	1c33      	adds	r3, r6, #0
  101da4:	1c5e      	adds	r6, r3, #1
  101da6:	785b      	ldrb	r3, [r3, #1]
  101da8:	2b25      	cmp	r3, #37	; 0x25
  101daa:	d1f8      	bne.n	101d9e <_vfiprintf_r+0x96>
  101dac:	1bf2      	subs	r2, r6, r7
  101dae:	4690      	mov	r8, r2
  101db0:	d010      	beq.n	101dd4 <_vfiprintf_r+0xcc>
  101db2:	68a3      	ldr	r3, [r4, #8]
  101db4:	4443      	add	r3, r8
  101db6:	60a3      	str	r3, [r4, #8]
  101db8:	6863      	ldr	r3, [r4, #4]
  101dba:	3301      	adds	r3, #1
  101dbc:	602f      	str	r7, [r5, #0]
  101dbe:	606a      	str	r2, [r5, #4]
  101dc0:	6063      	str	r3, [r4, #4]
  101dc2:	3508      	adds	r5, #8
  101dc4:	2b07      	cmp	r3, #7
  101dc6:	dd00      	ble.n	101dca <_vfiprintf_r+0xc2>
  101dc8:	e3d2      	b.n	102570 <_vfiprintf_r+0x868>
  101dca:	9b06      	ldr	r3, [sp, #24]
  101dcc:	4699      	mov	r9, r3
  101dce:	44c1      	add	r9, r8
  101dd0:	464b      	mov	r3, r9
  101dd2:	9306      	str	r3, [sp, #24]
  101dd4:	7833      	ldrb	r3, [r6, #0]
  101dd6:	2b00      	cmp	r3, #0
  101dd8:	d100      	bne.n	101ddc <_vfiprintf_r+0xd4>
  101dda:	e303      	b.n	1023e4 <_vfiprintf_r+0x6dc>
  101ddc:	489f      	ldr	r0, [pc, #636]	; (10205c <_vfiprintf_r+0x354>)
  101dde:	2300      	movs	r3, #0
  101de0:	4468      	add	r0, sp
  101de2:	2100      	movs	r1, #0
  101de4:	2200      	movs	r2, #0
  101de6:	1c77      	adds	r7, r6, #1
  101de8:	2601      	movs	r6, #1
  101dea:	7003      	strb	r3, [r0, #0]
  101dec:	4276      	negs	r6, r6
  101dee:	9107      	str	r1, [sp, #28]
  101df0:	9202      	str	r2, [sp, #8]
  101df2:	2340      	movs	r3, #64	; 0x40
  101df4:	2204      	movs	r2, #4
  101df6:	499a      	ldr	r1, [pc, #616]	; (102060 <_vfiprintf_r+0x358>)
  101df8:	46b0      	mov	r8, r6
  101dfa:	2000      	movs	r0, #0
  101dfc:	2610      	movs	r6, #16
  101dfe:	469a      	mov	sl, r3
  101e00:	4694      	mov	ip, r2
  101e02:	783b      	ldrb	r3, [r7, #0]
  101e04:	3701      	adds	r7, #1
  101e06:	1c1a      	adds	r2, r3, #0
  101e08:	3a20      	subs	r2, #32
  101e0a:	2a58      	cmp	r2, #88	; 0x58
  101e0c:	d910      	bls.n	101e30 <_vfiprintf_r+0x128>
  101e0e:	4993      	ldr	r1, [pc, #588]	; (10205c <_vfiprintf_r+0x354>)
  101e10:	4469      	add	r1, sp
  101e12:	7008      	strb	r0, [r1, #0]
  101e14:	2b00      	cmp	r3, #0
  101e16:	d100      	bne.n	101e1a <_vfiprintf_r+0x112>
  101e18:	e2e4      	b.n	1023e4 <_vfiprintf_r+0x6dc>
  101e1a:	aaff      	add	r2, sp, #1020	; 0x3fc
  101e1c:	32e4      	adds	r2, #228	; 0xe4
  101e1e:	7013      	strb	r3, [r2, #0]
  101e20:	2300      	movs	r3, #0
  101e22:	700b      	strb	r3, [r1, #0]
  101e24:	2001      	movs	r0, #1
  101e26:	2301      	movs	r3, #1
  101e28:	9304      	str	r3, [sp, #16]
  101e2a:	9005      	str	r0, [sp, #20]
  101e2c:	920b      	str	r2, [sp, #44]	; 0x2c
  101e2e:	e173      	b.n	102118 <_vfiprintf_r+0x410>
  101e30:	0092      	lsls	r2, r2, #2
  101e32:	588a      	ldr	r2, [r1, r2]
  101e34:	4697      	mov	pc, r2
  101e36:	9802      	ldr	r0, [sp, #8]
  101e38:	2310      	movs	r3, #16
  101e3a:	4318      	orrs	r0, r3
  101e3c:	9002      	str	r0, [sp, #8]
  101e3e:	9902      	ldr	r1, [sp, #8]
  101e40:	06c9      	lsls	r1, r1, #27
  101e42:	d44d      	bmi.n	101ee0 <_vfiprintf_r+0x1d8>
  101e44:	9802      	ldr	r0, [sp, #8]
  101e46:	0640      	lsls	r0, r0, #25
  101e48:	d54a      	bpl.n	101ee0 <_vfiprintf_r+0x1d8>
  101e4a:	9908      	ldr	r1, [sp, #32]
  101e4c:	880e      	ldrh	r6, [r1, #0]
  101e4e:	3104      	adds	r1, #4
  101e50:	1c32      	adds	r2, r6, #0
  101e52:	1e53      	subs	r3, r2, #1
  101e54:	419a      	sbcs	r2, r3
  101e56:	9108      	str	r1, [sp, #32]
  101e58:	2301      	movs	r3, #1
  101e5a:	e010      	b.n	101e7e <_vfiprintf_r+0x176>
  101e5c:	9902      	ldr	r1, [sp, #8]
  101e5e:	2310      	movs	r3, #16
  101e60:	4319      	orrs	r1, r3
  101e62:	9102      	str	r1, [sp, #8]
  101e64:	9a02      	ldr	r2, [sp, #8]
  101e66:	06d2      	lsls	r2, r2, #27
  101e68:	d400      	bmi.n	101e6c <_vfiprintf_r+0x164>
  101e6a:	e3d2      	b.n	102612 <_vfiprintf_r+0x90a>
  101e6c:	9b08      	ldr	r3, [sp, #32]
  101e6e:	9808      	ldr	r0, [sp, #32]
  101e70:	681e      	ldr	r6, [r3, #0]
  101e72:	3004      	adds	r0, #4
  101e74:	1c32      	adds	r2, r6, #0
  101e76:	9008      	str	r0, [sp, #32]
  101e78:	1e53      	subs	r3, r2, #1
  101e7a:	419a      	sbcs	r2, r3
  101e7c:	2300      	movs	r3, #0
  101e7e:	4877      	ldr	r0, [pc, #476]	; (10205c <_vfiprintf_r+0x354>)
  101e80:	2100      	movs	r1, #0
  101e82:	4468      	add	r0, sp
  101e84:	7001      	strb	r1, [r0, #0]
  101e86:	4641      	mov	r1, r8
  101e88:	2900      	cmp	r1, #0
  101e8a:	db03      	blt.n	101e94 <_vfiprintf_r+0x18c>
  101e8c:	9802      	ldr	r0, [sp, #8]
  101e8e:	2180      	movs	r1, #128	; 0x80
  101e90:	4388      	bics	r0, r1
  101e92:	9002      	str	r0, [sp, #8]
  101e94:	4641      	mov	r1, r8
  101e96:	2900      	cmp	r1, #0
  101e98:	d102      	bne.n	101ea0 <_vfiprintf_r+0x198>
  101e9a:	2a00      	cmp	r2, #0
  101e9c:	d100      	bne.n	101ea0 <_vfiprintf_r+0x198>
  101e9e:	e275      	b.n	10238c <_vfiprintf_r+0x684>
  101ea0:	2b01      	cmp	r3, #1
  101ea2:	d100      	bne.n	101ea6 <_vfiprintf_r+0x19e>
  101ea4:	e39c      	b.n	1025e0 <_vfiprintf_r+0x8d8>
  101ea6:	2b02      	cmp	r3, #2
  101ea8:	d100      	bne.n	101eac <_vfiprintf_r+0x1a4>
  101eaa:	e38b      	b.n	1025c4 <_vfiprintf_r+0x8bc>
  101eac:	1c22      	adds	r2, r4, #0
  101eae:	2107      	movs	r1, #7
  101eb0:	e000      	b.n	101eb4 <_vfiprintf_r+0x1ac>
  101eb2:	1c02      	adds	r2, r0, #0
  101eb4:	1c0b      	adds	r3, r1, #0
  101eb6:	4033      	ands	r3, r6
  101eb8:	1e50      	subs	r0, r2, #1
  101eba:	3330      	adds	r3, #48	; 0x30
  101ebc:	7003      	strb	r3, [r0, #0]
  101ebe:	08f6      	lsrs	r6, r6, #3
  101ec0:	d1f7      	bne.n	101eb2 <_vfiprintf_r+0x1aa>
  101ec2:	900b      	str	r0, [sp, #44]	; 0x2c
  101ec4:	9802      	ldr	r0, [sp, #8]
  101ec6:	07c0      	lsls	r0, r0, #31
  101ec8:	d400      	bmi.n	101ecc <_vfiprintf_r+0x1c4>
  101eca:	e3ba      	b.n	102642 <_vfiprintf_r+0x93a>
  101ecc:	2b30      	cmp	r3, #48	; 0x30
  101ece:	d100      	bne.n	101ed2 <_vfiprintf_r+0x1ca>
  101ed0:	e39b      	b.n	10260a <_vfiprintf_r+0x902>
  101ed2:	3a02      	subs	r2, #2
  101ed4:	2330      	movs	r3, #48	; 0x30
  101ed6:	7013      	strb	r3, [r2, #0]
  101ed8:	1aa3      	subs	r3, r4, r2
  101eda:	920b      	str	r2, [sp, #44]	; 0x2c
  101edc:	9305      	str	r3, [sp, #20]
  101ede:	e266      	b.n	1023ae <_vfiprintf_r+0x6a6>
  101ee0:	9a08      	ldr	r2, [sp, #32]
  101ee2:	6816      	ldr	r6, [r2, #0]
  101ee4:	1c32      	adds	r2, r6, #0
  101ee6:	1e53      	subs	r3, r2, #1
  101ee8:	419a      	sbcs	r2, r3
  101eea:	9b08      	ldr	r3, [sp, #32]
  101eec:	3304      	adds	r3, #4
  101eee:	9308      	str	r3, [sp, #32]
  101ef0:	2301      	movs	r3, #1
  101ef2:	e7c4      	b.n	101e7e <_vfiprintf_r+0x176>
  101ef4:	9b08      	ldr	r3, [sp, #32]
  101ef6:	9a08      	ldr	r2, [sp, #32]
  101ef8:	681b      	ldr	r3, [r3, #0]
  101efa:	3204      	adds	r2, #4
  101efc:	9307      	str	r3, [sp, #28]
  101efe:	9208      	str	r2, [sp, #32]
  101f00:	2b00      	cmp	r3, #0
  101f02:	db00      	blt.n	101f06 <_vfiprintf_r+0x1fe>
  101f04:	e77d      	b.n	101e02 <_vfiprintf_r+0xfa>
  101f06:	425b      	negs	r3, r3
  101f08:	9307      	str	r3, [sp, #28]
  101f0a:	9b02      	ldr	r3, [sp, #8]
  101f0c:	4662      	mov	r2, ip
  101f0e:	4313      	orrs	r3, r2
  101f10:	9302      	str	r3, [sp, #8]
  101f12:	e776      	b.n	101e02 <_vfiprintf_r+0xfa>
  101f14:	9a02      	ldr	r2, [sp, #8]
  101f16:	4332      	orrs	r2, r6
  101f18:	9202      	str	r2, [sp, #8]
  101f1a:	e772      	b.n	101e02 <_vfiprintf_r+0xfa>
  101f1c:	9b08      	ldr	r3, [sp, #32]
  101f1e:	9a02      	ldr	r2, [sp, #8]
  101f20:	681e      	ldr	r6, [r3, #0]
  101f22:	1c19      	adds	r1, r3, #0
  101f24:	2302      	movs	r3, #2
  101f26:	431a      	orrs	r2, r3
  101f28:	4b4e      	ldr	r3, [pc, #312]	; (102064 <_vfiprintf_r+0x35c>)
  101f2a:	9202      	str	r2, [sp, #8]
  101f2c:	446b      	add	r3, sp
  101f2e:	2230      	movs	r2, #48	; 0x30
  101f30:	701a      	strb	r2, [r3, #0]
  101f32:	2278      	movs	r2, #120	; 0x78
  101f34:	705a      	strb	r2, [r3, #1]
  101f36:	1c32      	adds	r2, r6, #0
  101f38:	1e53      	subs	r3, r2, #1
  101f3a:	419a      	sbcs	r2, r3
  101f3c:	4b4a      	ldr	r3, [pc, #296]	; (102068 <_vfiprintf_r+0x360>)
  101f3e:	3104      	adds	r1, #4
  101f40:	930c      	str	r3, [sp, #48]	; 0x30
  101f42:	9108      	str	r1, [sp, #32]
  101f44:	2302      	movs	r3, #2
  101f46:	e79a      	b.n	101e7e <_vfiprintf_r+0x176>
  101f48:	9b08      	ldr	r3, [sp, #32]
  101f4a:	4844      	ldr	r0, [pc, #272]	; (10205c <_vfiprintf_r+0x354>)
  101f4c:	1c19      	adds	r1, r3, #0
  101f4e:	681b      	ldr	r3, [r3, #0]
  101f50:	2200      	movs	r2, #0
  101f52:	4468      	add	r0, sp
  101f54:	3104      	adds	r1, #4
  101f56:	7002      	strb	r2, [r0, #0]
  101f58:	9108      	str	r1, [sp, #32]
  101f5a:	930b      	str	r3, [sp, #44]	; 0x2c
  101f5c:	2b00      	cmp	r3, #0
  101f5e:	d100      	bne.n	101f62 <_vfiprintf_r+0x25a>
  101f60:	e3b0      	b.n	1026c4 <_vfiprintf_r+0x9bc>
  101f62:	4640      	mov	r0, r8
  101f64:	2800      	cmp	r0, #0
  101f66:	da00      	bge.n	101f6a <_vfiprintf_r+0x262>
  101f68:	e3a5      	b.n	1026b6 <_vfiprintf_r+0x9ae>
  101f6a:	980b      	ldr	r0, [sp, #44]	; 0x2c
  101f6c:	2100      	movs	r1, #0
  101f6e:	4642      	mov	r2, r8
  101f70:	f001 fd0c 	bl	10398c <memchr>
  101f74:	2800      	cmp	r0, #0
  101f76:	d100      	bne.n	101f7a <_vfiprintf_r+0x272>
  101f78:	e3be      	b.n	1026f8 <_vfiprintf_r+0x9f0>
  101f7a:	990b      	ldr	r1, [sp, #44]	; 0x2c
  101f7c:	1a40      	subs	r0, r0, r1
  101f7e:	9005      	str	r0, [sp, #20]
  101f80:	4540      	cmp	r0, r8
  101f82:	dc00      	bgt.n	101f86 <_vfiprintf_r+0x27e>
  101f84:	e38c      	b.n	1026a0 <_vfiprintf_r+0x998>
  101f86:	4641      	mov	r1, r8
  101f88:	2000      	movs	r0, #0
  101f8a:	9105      	str	r1, [sp, #20]
  101f8c:	9009      	str	r0, [sp, #36]	; 0x24
  101f8e:	e210      	b.n	1023b2 <_vfiprintf_r+0x6aa>
  101f90:	4932      	ldr	r1, [pc, #200]	; (10205c <_vfiprintf_r+0x354>)
  101f92:	4a35      	ldr	r2, [pc, #212]	; (102068 <_vfiprintf_r+0x360>)
  101f94:	4469      	add	r1, sp
  101f96:	7008      	strb	r0, [r1, #0]
  101f98:	920c      	str	r2, [sp, #48]	; 0x30
  101f9a:	9802      	ldr	r0, [sp, #8]
  101f9c:	06c0      	lsls	r0, r0, #27
  101f9e:	d403      	bmi.n	101fa8 <_vfiprintf_r+0x2a0>
  101fa0:	9a02      	ldr	r2, [sp, #8]
  101fa2:	0652      	lsls	r2, r2, #25
  101fa4:	d500      	bpl.n	101fa8 <_vfiprintf_r+0x2a0>
  101fa6:	e350      	b.n	10264a <_vfiprintf_r+0x942>
  101fa8:	9908      	ldr	r1, [sp, #32]
  101faa:	680e      	ldr	r6, [r1, #0]
  101fac:	3104      	adds	r1, #4
  101fae:	9108      	str	r1, [sp, #32]
  101fb0:	1c32      	adds	r2, r6, #0
  101fb2:	1e51      	subs	r1, r2, #1
  101fb4:	418a      	sbcs	r2, r1
  101fb6:	2a00      	cmp	r2, #0
  101fb8:	d00d      	beq.n	101fd6 <_vfiprintf_r+0x2ce>
  101fba:	9802      	ldr	r0, [sp, #8]
  101fbc:	07c0      	lsls	r0, r0, #31
  101fbe:	d50a      	bpl.n	101fd6 <_vfiprintf_r+0x2ce>
  101fc0:	4a28      	ldr	r2, [pc, #160]	; (102064 <_vfiprintf_r+0x35c>)
  101fc2:	2130      	movs	r1, #48	; 0x30
  101fc4:	446a      	add	r2, sp
  101fc6:	7011      	strb	r1, [r2, #0]
  101fc8:	9902      	ldr	r1, [sp, #8]
  101fca:	7053      	strb	r3, [r2, #1]
  101fcc:	2302      	movs	r3, #2
  101fce:	4319      	orrs	r1, r3
  101fd0:	9102      	str	r1, [sp, #8]
  101fd2:	2201      	movs	r2, #1
  101fd4:	e753      	b.n	101e7e <_vfiprintf_r+0x176>
  101fd6:	2302      	movs	r3, #2
  101fd8:	e751      	b.n	101e7e <_vfiprintf_r+0x176>
  101fda:	4920      	ldr	r1, [pc, #128]	; (10205c <_vfiprintf_r+0x354>)
  101fdc:	9a02      	ldr	r2, [sp, #8]
  101fde:	4469      	add	r1, sp
  101fe0:	7008      	strb	r0, [r1, #0]
  101fe2:	06d2      	lsls	r2, r2, #27
  101fe4:	d500      	bpl.n	101fe8 <_vfiprintf_r+0x2e0>
  101fe6:	e33f      	b.n	102668 <_vfiprintf_r+0x960>
  101fe8:	9a02      	ldr	r2, [sp, #8]
  101fea:	0652      	lsls	r2, r2, #25
  101fec:	d400      	bmi.n	101ff0 <_vfiprintf_r+0x2e8>
  101fee:	e35a      	b.n	1026a6 <_vfiprintf_r+0x99e>
  101ff0:	9808      	ldr	r0, [sp, #32]
  101ff2:	4669      	mov	r1, sp
  101ff4:	2218      	movs	r2, #24
  101ff6:	6803      	ldr	r3, [r0, #0]
  101ff8:	5a51      	ldrh	r1, [r2, r1]
  101ffa:	3004      	adds	r0, #4
  101ffc:	8019      	strh	r1, [r3, #0]
  101ffe:	9008      	str	r0, [sp, #32]
  102000:	e6c4      	b.n	101d8c <_vfiprintf_r+0x84>
  102002:	783b      	ldrb	r3, [r7, #0]
  102004:	3701      	adds	r7, #1
  102006:	2b2a      	cmp	r3, #42	; 0x2a
  102008:	d100      	bne.n	10200c <_vfiprintf_r+0x304>
  10200a:	e37a      	b.n	102702 <_vfiprintf_r+0x9fa>
  10200c:	1c1a      	adds	r2, r3, #0
  10200e:	3a30      	subs	r2, #48	; 0x30
  102010:	9204      	str	r2, [sp, #16]
  102012:	2200      	movs	r2, #0
  102014:	4690      	mov	r8, r2
  102016:	9a04      	ldr	r2, [sp, #16]
  102018:	2a09      	cmp	r2, #9
  10201a:	d900      	bls.n	10201e <_vfiprintf_r+0x316>
  10201c:	e6f3      	b.n	101e06 <_vfiprintf_r+0xfe>
  10201e:	9a04      	ldr	r2, [sp, #16]
  102020:	4643      	mov	r3, r8
  102022:	4680      	mov	r8, r0
  102024:	0098      	lsls	r0, r3, #2
  102026:	18c3      	adds	r3, r0, r3
  102028:	7838      	ldrb	r0, [r7, #0]
  10202a:	005b      	lsls	r3, r3, #1
  10202c:	18d3      	adds	r3, r2, r3
  10202e:	1c02      	adds	r2, r0, #0
  102030:	3a30      	subs	r2, #48	; 0x30
  102032:	3701      	adds	r7, #1
  102034:	2a09      	cmp	r2, #9
  102036:	d9f5      	bls.n	102024 <_vfiprintf_r+0x31c>
  102038:	4642      	mov	r2, r8
  10203a:	4698      	mov	r8, r3
  10203c:	1c03      	adds	r3, r0, #0
  10203e:	1c10      	adds	r0, r2, #0
  102040:	4642      	mov	r2, r8
  102042:	2a00      	cmp	r2, #0
  102044:	db00      	blt.n	102048 <_vfiprintf_r+0x340>
  102046:	e6de      	b.n	101e06 <_vfiprintf_r+0xfe>
  102048:	2201      	movs	r2, #1
  10204a:	4252      	negs	r2, r2
  10204c:	4690      	mov	r8, r2
  10204e:	e6da      	b.n	101e06 <_vfiprintf_r+0xfe>
  102050:	fffffae4 	.word	0xfffffae4
  102054:	ffffdfff 	.word	0xffffdfff
  102058:	00000507 	.word	0x00000507
  10205c:	00000517 	.word	0x00000517
  102060:	001044bc 	.word	0x001044bc
  102064:	00000514 	.word	0x00000514
  102068:	00104b20 	.word	0x00104b20
  10206c:	3b30      	subs	r3, #48	; 0x30
  10206e:	2200      	movs	r2, #0
  102070:	9304      	str	r3, [sp, #16]
  102072:	9207      	str	r2, [sp, #28]
  102074:	9a04      	ldr	r2, [sp, #16]
  102076:	2300      	movs	r3, #0
  102078:	4681      	mov	r9, r0
  10207a:	0098      	lsls	r0, r3, #2
  10207c:	18c3      	adds	r3, r0, r3
  10207e:	7838      	ldrb	r0, [r7, #0]
  102080:	005b      	lsls	r3, r3, #1
  102082:	189b      	adds	r3, r3, r2
  102084:	1c02      	adds	r2, r0, #0
  102086:	3a30      	subs	r2, #48	; 0x30
  102088:	3701      	adds	r7, #1
  10208a:	2a09      	cmp	r2, #9
  10208c:	d9f5      	bls.n	10207a <_vfiprintf_r+0x372>
  10208e:	9307      	str	r3, [sp, #28]
  102090:	1c03      	adds	r3, r0, #0
  102092:	4648      	mov	r0, r9
  102094:	e6b7      	b.n	101e06 <_vfiprintf_r+0xfe>
  102096:	9b02      	ldr	r3, [sp, #8]
  102098:	2280      	movs	r2, #128	; 0x80
  10209a:	4313      	orrs	r3, r2
  10209c:	9302      	str	r3, [sp, #8]
  10209e:	e6b0      	b.n	101e02 <_vfiprintf_r+0xfa>
  1020a0:	202b      	movs	r0, #43	; 0x2b
  1020a2:	e6ae      	b.n	101e02 <_vfiprintf_r+0xfa>
  1020a4:	9b02      	ldr	r3, [sp, #8]
  1020a6:	2201      	movs	r2, #1
  1020a8:	4313      	orrs	r3, r2
  1020aa:	9302      	str	r3, [sp, #8]
  1020ac:	e6a9      	b.n	101e02 <_vfiprintf_r+0xfa>
  1020ae:	2800      	cmp	r0, #0
  1020b0:	d000      	beq.n	1020b4 <_vfiprintf_r+0x3ac>
  1020b2:	e6a6      	b.n	101e02 <_vfiprintf_r+0xfa>
  1020b4:	2020      	movs	r0, #32
  1020b6:	e6a4      	b.n	101e02 <_vfiprintf_r+0xfa>
  1020b8:	9b02      	ldr	r3, [sp, #8]
  1020ba:	4333      	orrs	r3, r6
  1020bc:	9302      	str	r3, [sp, #8]
  1020be:	e6a0      	b.n	101e02 <_vfiprintf_r+0xfa>
  1020c0:	9b02      	ldr	r3, [sp, #8]
  1020c2:	4652      	mov	r2, sl
  1020c4:	4313      	orrs	r3, r2
  1020c6:	9302      	str	r3, [sp, #8]
  1020c8:	e69b      	b.n	101e02 <_vfiprintf_r+0xfa>
  1020ca:	4bc1      	ldr	r3, [pc, #772]	; (1023d0 <_vfiprintf_r+0x6c8>)
  1020cc:	446b      	add	r3, sp
  1020ce:	7018      	strb	r0, [r3, #0]
  1020d0:	9902      	ldr	r1, [sp, #8]
  1020d2:	06c9      	lsls	r1, r1, #27
  1020d4:	d403      	bmi.n	1020de <_vfiprintf_r+0x3d6>
  1020d6:	9b02      	ldr	r3, [sp, #8]
  1020d8:	065b      	lsls	r3, r3, #25
  1020da:	d500      	bpl.n	1020de <_vfiprintf_r+0x3d6>
  1020dc:	e2cc      	b.n	102678 <_vfiprintf_r+0x970>
  1020de:	9a08      	ldr	r2, [sp, #32]
  1020e0:	6816      	ldr	r6, [r2, #0]
  1020e2:	3204      	adds	r2, #4
  1020e4:	9208      	str	r2, [sp, #32]
  1020e6:	2e00      	cmp	r6, #0
  1020e8:	da00      	bge.n	1020ec <_vfiprintf_r+0x3e4>
  1020ea:	e2ce      	b.n	10268a <_vfiprintf_r+0x982>
  1020ec:	1c32      	adds	r2, r6, #0
  1020ee:	1e53      	subs	r3, r2, #1
  1020f0:	419a      	sbcs	r2, r3
  1020f2:	2301      	movs	r3, #1
  1020f4:	e6c7      	b.n	101e86 <_vfiprintf_r+0x17e>
  1020f6:	9a08      	ldr	r2, [sp, #32]
  1020f8:	1c13      	adds	r3, r2, #0
  1020fa:	3304      	adds	r3, #4
  1020fc:	6812      	ldr	r2, [r2, #0]
  1020fe:	9308      	str	r3, [sp, #32]
  102100:	48b3      	ldr	r0, [pc, #716]	; (1023d0 <_vfiprintf_r+0x6c8>)
  102102:	abff      	add	r3, sp, #1020	; 0x3fc
  102104:	33e4      	adds	r3, #228	; 0xe4
  102106:	701a      	strb	r2, [r3, #0]
  102108:	4468      	add	r0, sp
  10210a:	2200      	movs	r2, #0
  10210c:	7002      	strb	r2, [r0, #0]
  10210e:	2101      	movs	r1, #1
  102110:	2201      	movs	r2, #1
  102112:	9104      	str	r1, [sp, #16]
  102114:	9205      	str	r2, [sp, #20]
  102116:	930b      	str	r3, [sp, #44]	; 0x2c
  102118:	2200      	movs	r2, #0
  10211a:	9209      	str	r2, [sp, #36]	; 0x24
  10211c:	9a02      	ldr	r2, [sp, #8]
  10211e:	2302      	movs	r3, #2
  102120:	401a      	ands	r2, r3
  102122:	4691      	mov	r9, r2
  102124:	d002      	beq.n	10212c <_vfiprintf_r+0x424>
  102126:	9b04      	ldr	r3, [sp, #16]
  102128:	3302      	adds	r3, #2
  10212a:	9304      	str	r3, [sp, #16]
  10212c:	9802      	ldr	r0, [sp, #8]
  10212e:	2384      	movs	r3, #132	; 0x84
  102130:	4018      	ands	r0, r3
  102132:	900a      	str	r0, [sp, #40]	; 0x28
  102134:	d146      	bne.n	1021c4 <_vfiprintf_r+0x4bc>
  102136:	9907      	ldr	r1, [sp, #28]
  102138:	9a04      	ldr	r2, [sp, #16]
  10213a:	1a8e      	subs	r6, r1, r2
  10213c:	2e00      	cmp	r6, #0
  10213e:	dd41      	ble.n	1021c4 <_vfiprintf_r+0x4bc>
  102140:	2e10      	cmp	r6, #16
  102142:	dc00      	bgt.n	102146 <_vfiprintf_r+0x43e>
  102144:	e2c9      	b.n	1026da <_vfiprintf_r+0x9d2>
  102146:	48a3      	ldr	r0, [pc, #652]	; (1023d4 <_vfiprintf_r+0x6cc>)
  102148:	2110      	movs	r1, #16
  10214a:	1c2b      	adds	r3, r5, #0
  10214c:	46ba      	mov	sl, r7
  10214e:	4688      	mov	r8, r1
  102150:	465d      	mov	r5, fp
  102152:	1c07      	adds	r7, r0, #0
  102154:	e002      	b.n	10215c <_vfiprintf_r+0x454>
  102156:	3e10      	subs	r6, #16
  102158:	2e10      	cmp	r6, #16
  10215a:	dd18      	ble.n	10218e <_vfiprintf_r+0x486>
  10215c:	4642      	mov	r2, r8
  10215e:	605a      	str	r2, [r3, #4]
  102160:	68a2      	ldr	r2, [r4, #8]
  102162:	3210      	adds	r2, #16
  102164:	60a2      	str	r2, [r4, #8]
  102166:	6862      	ldr	r2, [r4, #4]
  102168:	3201      	adds	r2, #1
  10216a:	601f      	str	r7, [r3, #0]
  10216c:	6062      	str	r2, [r4, #4]
  10216e:	3308      	adds	r3, #8
  102170:	2a07      	cmp	r2, #7
  102172:	ddf0      	ble.n	102156 <_vfiprintf_r+0x44e>
  102174:	9803      	ldr	r0, [sp, #12]
  102176:	1c29      	adds	r1, r5, #0
  102178:	1c22      	adds	r2, r4, #0
  10217a:	f7ff fd83 	bl	101c84 <__sprint_r>
  10217e:	2800      	cmp	r0, #0
  102180:	d000      	beq.n	102184 <_vfiprintf_r+0x47c>
  102182:	e288      	b.n	102696 <_vfiprintf_r+0x98e>
  102184:	abff      	add	r3, sp, #1020	; 0x3fc
  102186:	3e10      	subs	r6, #16
  102188:	33a4      	adds	r3, #164	; 0xa4
  10218a:	2e10      	cmp	r6, #16
  10218c:	dce6      	bgt.n	10215c <_vfiprintf_r+0x454>
  10218e:	46ab      	mov	fp, r5
  102190:	1c1d      	adds	r5, r3, #0
  102192:	1c3b      	adds	r3, r7, #0
  102194:	4657      	mov	r7, sl
  102196:	469a      	mov	sl, r3
  102198:	4653      	mov	r3, sl
  10219a:	602b      	str	r3, [r5, #0]
  10219c:	68a3      	ldr	r3, [r4, #8]
  10219e:	199b      	adds	r3, r3, r6
  1021a0:	60a3      	str	r3, [r4, #8]
  1021a2:	6863      	ldr	r3, [r4, #4]
  1021a4:	3301      	adds	r3, #1
  1021a6:	606e      	str	r6, [r5, #4]
  1021a8:	6063      	str	r3, [r4, #4]
  1021aa:	3508      	adds	r5, #8
  1021ac:	2b07      	cmp	r3, #7
  1021ae:	dd09      	ble.n	1021c4 <_vfiprintf_r+0x4bc>
  1021b0:	9803      	ldr	r0, [sp, #12]
  1021b2:	4659      	mov	r1, fp
  1021b4:	1c22      	adds	r2, r4, #0
  1021b6:	f7ff fd65 	bl	101c84 <__sprint_r>
  1021ba:	2800      	cmp	r0, #0
  1021bc:	d000      	beq.n	1021c0 <_vfiprintf_r+0x4b8>
  1021be:	e119      	b.n	1023f4 <_vfiprintf_r+0x6ec>
  1021c0:	adff      	add	r5, sp, #1020	; 0x3fc
  1021c2:	35a4      	adds	r5, #164	; 0xa4
  1021c4:	4882      	ldr	r0, [pc, #520]	; (1023d0 <_vfiprintf_r+0x6c8>)
  1021c6:	4468      	add	r0, sp
  1021c8:	7803      	ldrb	r3, [r0, #0]
  1021ca:	2b00      	cmp	r3, #0
  1021cc:	d00c      	beq.n	1021e8 <_vfiprintf_r+0x4e0>
  1021ce:	2301      	movs	r3, #1
  1021d0:	606b      	str	r3, [r5, #4]
  1021d2:	68a3      	ldr	r3, [r4, #8]
  1021d4:	3301      	adds	r3, #1
  1021d6:	60a3      	str	r3, [r4, #8]
  1021d8:	6863      	ldr	r3, [r4, #4]
  1021da:	3301      	adds	r3, #1
  1021dc:	6028      	str	r0, [r5, #0]
  1021de:	6063      	str	r3, [r4, #4]
  1021e0:	3508      	adds	r5, #8
  1021e2:	2b07      	cmp	r3, #7
  1021e4:	dd00      	ble.n	1021e8 <_vfiprintf_r+0x4e0>
  1021e6:	e1cf      	b.n	102588 <_vfiprintf_r+0x880>
  1021e8:	4649      	mov	r1, r9
  1021ea:	2900      	cmp	r1, #0
  1021ec:	d00e      	beq.n	10220c <_vfiprintf_r+0x504>
  1021ee:	4b7a      	ldr	r3, [pc, #488]	; (1023d8 <_vfiprintf_r+0x6d0>)
  1021f0:	446b      	add	r3, sp
  1021f2:	602b      	str	r3, [r5, #0]
  1021f4:	2302      	movs	r3, #2
  1021f6:	606b      	str	r3, [r5, #4]
  1021f8:	68a3      	ldr	r3, [r4, #8]
  1021fa:	3302      	adds	r3, #2
  1021fc:	60a3      	str	r3, [r4, #8]
  1021fe:	6863      	ldr	r3, [r4, #4]
  102200:	3301      	adds	r3, #1
  102202:	6063      	str	r3, [r4, #4]
  102204:	3508      	adds	r5, #8
  102206:	2b07      	cmp	r3, #7
  102208:	dd00      	ble.n	10220c <_vfiprintf_r+0x504>
  10220a:	e1c8      	b.n	10259e <_vfiprintf_r+0x896>
  10220c:	9a0a      	ldr	r2, [sp, #40]	; 0x28
  10220e:	2a80      	cmp	r2, #128	; 0x80
  102210:	d100      	bne.n	102214 <_vfiprintf_r+0x50c>
  102212:	e101      	b.n	102418 <_vfiprintf_r+0x710>
  102214:	9b09      	ldr	r3, [sp, #36]	; 0x24
  102216:	9805      	ldr	r0, [sp, #20]
  102218:	1a1e      	subs	r6, r3, r0
  10221a:	2e00      	cmp	r6, #0
  10221c:	dd46      	ble.n	1022ac <_vfiprintf_r+0x5a4>
  10221e:	2e10      	cmp	r6, #16
  102220:	dc00      	bgt.n	102224 <_vfiprintf_r+0x51c>
  102222:	e23a      	b.n	10269a <_vfiprintf_r+0x992>
  102224:	4a6b      	ldr	r2, [pc, #428]	; (1023d4 <_vfiprintf_r+0x6cc>)
  102226:	2310      	movs	r3, #16
  102228:	4692      	mov	sl, r2
  10222a:	4698      	mov	r8, r3
  10222c:	465a      	mov	r2, fp
  10222e:	4699      	mov	r9, r3
  102230:	46bb      	mov	fp, r7
  102232:	1c2b      	adds	r3, r5, #0
  102234:	44d0      	add	r8, sl
  102236:	9d03      	ldr	r5, [sp, #12]
  102238:	1c17      	adds	r7, r2, #0
  10223a:	e002      	b.n	102242 <_vfiprintf_r+0x53a>
  10223c:	3e10      	subs	r6, #16
  10223e:	2e10      	cmp	r6, #16
  102240:	dd19      	ble.n	102276 <_vfiprintf_r+0x56e>
  102242:	464a      	mov	r2, r9
  102244:	605a      	str	r2, [r3, #4]
  102246:	68a2      	ldr	r2, [r4, #8]
  102248:	3210      	adds	r2, #16
  10224a:	60a2      	str	r2, [r4, #8]
  10224c:	6862      	ldr	r2, [r4, #4]
  10224e:	4641      	mov	r1, r8
  102250:	3201      	adds	r2, #1
  102252:	6019      	str	r1, [r3, #0]
  102254:	6062      	str	r2, [r4, #4]
  102256:	3308      	adds	r3, #8
  102258:	2a07      	cmp	r2, #7
  10225a:	ddef      	ble.n	10223c <_vfiprintf_r+0x534>
  10225c:	1c28      	adds	r0, r5, #0
  10225e:	1c39      	adds	r1, r7, #0
  102260:	1c22      	adds	r2, r4, #0
  102262:	f7ff fd0f 	bl	101c84 <__sprint_r>
  102266:	2800      	cmp	r0, #0
  102268:	d000      	beq.n	10226c <_vfiprintf_r+0x564>
  10226a:	e139      	b.n	1024e0 <_vfiprintf_r+0x7d8>
  10226c:	abff      	add	r3, sp, #1020	; 0x3fc
  10226e:	3e10      	subs	r6, #16
  102270:	33a4      	adds	r3, #164	; 0xa4
  102272:	2e10      	cmp	r6, #16
  102274:	dce5      	bgt.n	102242 <_vfiprintf_r+0x53a>
  102276:	1c1d      	adds	r5, r3, #0
  102278:	1c3b      	adds	r3, r7, #0
  10227a:	465f      	mov	r7, fp
  10227c:	469b      	mov	fp, r3
  10227e:	4653      	mov	r3, sl
  102280:	3310      	adds	r3, #16
  102282:	602b      	str	r3, [r5, #0]
  102284:	68a3      	ldr	r3, [r4, #8]
  102286:	606e      	str	r6, [r5, #4]
  102288:	199e      	adds	r6, r3, r6
  10228a:	6863      	ldr	r3, [r4, #4]
  10228c:	3301      	adds	r3, #1
  10228e:	60a6      	str	r6, [r4, #8]
  102290:	6063      	str	r3, [r4, #4]
  102292:	3508      	adds	r5, #8
  102294:	2b07      	cmp	r3, #7
  102296:	dd09      	ble.n	1022ac <_vfiprintf_r+0x5a4>
  102298:	9803      	ldr	r0, [sp, #12]
  10229a:	4659      	mov	r1, fp
  10229c:	1c22      	adds	r2, r4, #0
  10229e:	f7ff fcf1 	bl	101c84 <__sprint_r>
  1022a2:	2800      	cmp	r0, #0
  1022a4:	d000      	beq.n	1022a8 <_vfiprintf_r+0x5a0>
  1022a6:	e0a5      	b.n	1023f4 <_vfiprintf_r+0x6ec>
  1022a8:	adff      	add	r5, sp, #1020	; 0x3fc
  1022aa:	35a4      	adds	r5, #164	; 0xa4
  1022ac:	9b0b      	ldr	r3, [sp, #44]	; 0x2c
  1022ae:	9805      	ldr	r0, [sp, #20]
  1022b0:	602b      	str	r3, [r5, #0]
  1022b2:	68a3      	ldr	r3, [r4, #8]
  1022b4:	181b      	adds	r3, r3, r0
  1022b6:	60a3      	str	r3, [r4, #8]
  1022b8:	6863      	ldr	r3, [r4, #4]
  1022ba:	3301      	adds	r3, #1
  1022bc:	6068      	str	r0, [r5, #4]
  1022be:	6063      	str	r3, [r4, #4]
  1022c0:	2b07      	cmp	r3, #7
  1022c2:	dd00      	ble.n	1022c6 <_vfiprintf_r+0x5be>
  1022c4:	e0f5      	b.n	1024b2 <_vfiprintf_r+0x7aa>
  1022c6:	1c2b      	adds	r3, r5, #0
  1022c8:	3308      	adds	r3, #8
  1022ca:	9902      	ldr	r1, [sp, #8]
  1022cc:	0749      	lsls	r1, r1, #29
  1022ce:	d539      	bpl.n	102344 <_vfiprintf_r+0x63c>
  1022d0:	9a07      	ldr	r2, [sp, #28]
  1022d2:	9804      	ldr	r0, [sp, #16]
  1022d4:	1a16      	subs	r6, r2, r0
  1022d6:	2e00      	cmp	r6, #0
  1022d8:	dd34      	ble.n	102344 <_vfiprintf_r+0x63c>
  1022da:	2e10      	cmp	r6, #16
  1022dc:	dc00      	bgt.n	1022e0 <_vfiprintf_r+0x5d8>
  1022de:	e205      	b.n	1026ec <_vfiprintf_r+0x9e4>
  1022e0:	4a3c      	ldr	r2, [pc, #240]	; (1023d4 <_vfiprintf_r+0x6cc>)
  1022e2:	46b8      	mov	r8, r7
  1022e4:	2510      	movs	r5, #16
  1022e6:	1c17      	adds	r7, r2, #0
  1022e8:	e002      	b.n	1022f0 <_vfiprintf_r+0x5e8>
  1022ea:	3e10      	subs	r6, #16
  1022ec:	2e10      	cmp	r6, #16
  1022ee:	dd16      	ble.n	10231e <_vfiprintf_r+0x616>
  1022f0:	68a2      	ldr	r2, [r4, #8]
  1022f2:	3210      	adds	r2, #16
  1022f4:	60a2      	str	r2, [r4, #8]
  1022f6:	6862      	ldr	r2, [r4, #4]
  1022f8:	3201      	adds	r2, #1
  1022fa:	601f      	str	r7, [r3, #0]
  1022fc:	605d      	str	r5, [r3, #4]
  1022fe:	6062      	str	r2, [r4, #4]
  102300:	3308      	adds	r3, #8
  102302:	2a07      	cmp	r2, #7
  102304:	ddf1      	ble.n	1022ea <_vfiprintf_r+0x5e2>
  102306:	9803      	ldr	r0, [sp, #12]
  102308:	4659      	mov	r1, fp
  10230a:	1c22      	adds	r2, r4, #0
  10230c:	f7ff fcba 	bl	101c84 <__sprint_r>
  102310:	2800      	cmp	r0, #0
  102312:	d16f      	bne.n	1023f4 <_vfiprintf_r+0x6ec>
  102314:	abff      	add	r3, sp, #1020	; 0x3fc
  102316:	3e10      	subs	r6, #16
  102318:	33a4      	adds	r3, #164	; 0xa4
  10231a:	2e10      	cmp	r6, #16
  10231c:	dce8      	bgt.n	1022f0 <_vfiprintf_r+0x5e8>
  10231e:	46ba      	mov	sl, r7
  102320:	4647      	mov	r7, r8
  102322:	4650      	mov	r0, sl
  102324:	c341      	stmia	r3!, {r0, r6}
  102326:	68a3      	ldr	r3, [r4, #8]
  102328:	18f6      	adds	r6, r6, r3
  10232a:	6863      	ldr	r3, [r4, #4]
  10232c:	3301      	adds	r3, #1
  10232e:	60a6      	str	r6, [r4, #8]
  102330:	6063      	str	r3, [r4, #4]
  102332:	2b07      	cmp	r3, #7
  102334:	dd07      	ble.n	102346 <_vfiprintf_r+0x63e>
  102336:	9803      	ldr	r0, [sp, #12]
  102338:	4659      	mov	r1, fp
  10233a:	1c22      	adds	r2, r4, #0
  10233c:	f7ff fca2 	bl	101c84 <__sprint_r>
  102340:	2800      	cmp	r0, #0
  102342:	d157      	bne.n	1023f4 <_vfiprintf_r+0x6ec>
  102344:	68a6      	ldr	r6, [r4, #8]
  102346:	9b04      	ldr	r3, [sp, #16]
  102348:	9907      	ldr	r1, [sp, #28]
  10234a:	428b      	cmp	r3, r1
  10234c:	da00      	bge.n	102350 <_vfiprintf_r+0x648>
  10234e:	1c0b      	adds	r3, r1, #0
  102350:	9a06      	ldr	r2, [sp, #24]
  102352:	18d2      	adds	r2, r2, r3
  102354:	9206      	str	r2, [sp, #24]
  102356:	2e00      	cmp	r6, #0
  102358:	d000      	beq.n	10235c <_vfiprintf_r+0x654>
  10235a:	e0b4      	b.n	1024c6 <_vfiprintf_r+0x7be>
  10235c:	2300      	movs	r3, #0
  10235e:	6063      	str	r3, [r4, #4]
  102360:	783b      	ldrb	r3, [r7, #0]
  102362:	adff      	add	r5, sp, #1020	; 0x3fc
  102364:	35a4      	adds	r5, #164	; 0xa4
  102366:	2b00      	cmp	r3, #0
  102368:	d000      	beq.n	10236c <_vfiprintf_r+0x664>
  10236a:	e513      	b.n	101d94 <_vfiprintf_r+0x8c>
  10236c:	1c3e      	adds	r6, r7, #0
  10236e:	e531      	b.n	101dd4 <_vfiprintf_r+0xcc>
  102370:	4917      	ldr	r1, [pc, #92]	; (1023d0 <_vfiprintf_r+0x6c8>)
  102372:	4a1a      	ldr	r2, [pc, #104]	; (1023dc <_vfiprintf_r+0x6d4>)
  102374:	4469      	add	r1, sp
  102376:	7008      	strb	r0, [r1, #0]
  102378:	920c      	str	r2, [sp, #48]	; 0x30
  10237a:	e60e      	b.n	101f9a <_vfiprintf_r+0x292>
  10237c:	4b14      	ldr	r3, [pc, #80]	; (1023d0 <_vfiprintf_r+0x6c8>)
  10237e:	446b      	add	r3, sp
  102380:	7018      	strb	r0, [r3, #0]
  102382:	9802      	ldr	r0, [sp, #8]
  102384:	2310      	movs	r3, #16
  102386:	4318      	orrs	r0, r3
  102388:	9002      	str	r0, [sp, #8]
  10238a:	e6a1      	b.n	1020d0 <_vfiprintf_r+0x3c8>
  10238c:	2b00      	cmp	r3, #0
  10238e:	d000      	beq.n	102392 <_vfiprintf_r+0x68a>
  102390:	e0a2      	b.n	1024d8 <_vfiprintf_r+0x7d0>
  102392:	9802      	ldr	r0, [sp, #8]
  102394:	07c0      	lsls	r0, r0, #31
  102396:	d400      	bmi.n	10239a <_vfiprintf_r+0x692>
  102398:	e110      	b.n	1025bc <_vfiprintf_r+0x8b4>
  10239a:	aaff      	add	r2, sp, #1020	; 0x3fc
  10239c:	2130      	movs	r1, #48	; 0x30
  10239e:	32e4      	adds	r2, #228	; 0xe4
  1023a0:	2327      	movs	r3, #39	; 0x27
  1023a2:	54d1      	strb	r1, [r2, r3]
  1023a4:	4a0e      	ldr	r2, [pc, #56]	; (1023e0 <_vfiprintf_r+0x6d8>)
  1023a6:	990d      	ldr	r1, [sp, #52]	; 0x34
  1023a8:	446a      	add	r2, sp
  1023aa:	9105      	str	r1, [sp, #20]
  1023ac:	920b      	str	r2, [sp, #44]	; 0x2c
  1023ae:	4641      	mov	r1, r8
  1023b0:	9109      	str	r1, [sp, #36]	; 0x24
  1023b2:	9905      	ldr	r1, [sp, #20]
  1023b4:	9a09      	ldr	r2, [sp, #36]	; 0x24
  1023b6:	9104      	str	r1, [sp, #16]
  1023b8:	4291      	cmp	r1, r2
  1023ba:	da00      	bge.n	1023be <_vfiprintf_r+0x6b6>
  1023bc:	9204      	str	r2, [sp, #16]
  1023be:	4804      	ldr	r0, [pc, #16]	; (1023d0 <_vfiprintf_r+0x6c8>)
  1023c0:	4468      	add	r0, sp
  1023c2:	7803      	ldrb	r3, [r0, #0]
  1023c4:	9904      	ldr	r1, [sp, #16]
  1023c6:	1e5a      	subs	r2, r3, #1
  1023c8:	4193      	sbcs	r3, r2
  1023ca:	18c9      	adds	r1, r1, r3
  1023cc:	9104      	str	r1, [sp, #16]
  1023ce:	e6a5      	b.n	10211c <_vfiprintf_r+0x414>
  1023d0:	00000517 	.word	0x00000517
  1023d4:	00104620 	.word	0x00104620
  1023d8:	00000514 	.word	0x00000514
  1023dc:	00104b0c 	.word	0x00104b0c
  1023e0:	00000507 	.word	0x00000507
  1023e4:	68a3      	ldr	r3, [r4, #8]
  1023e6:	2b00      	cmp	r3, #0
  1023e8:	d004      	beq.n	1023f4 <_vfiprintf_r+0x6ec>
  1023ea:	9803      	ldr	r0, [sp, #12]
  1023ec:	4659      	mov	r1, fp
  1023ee:	1c22      	adds	r2, r4, #0
  1023f0:	f7ff fc48 	bl	101c84 <__sprint_r>
  1023f4:	4658      	mov	r0, fp
  1023f6:	8983      	ldrh	r3, [r0, #12]
  1023f8:	0659      	lsls	r1, r3, #25
  1023fa:	d502      	bpl.n	102402 <_vfiprintf_r+0x6fa>
  1023fc:	2301      	movs	r3, #1
  1023fe:	425b      	negs	r3, r3
  102400:	9306      	str	r3, [sp, #24]
  102402:	4bcc      	ldr	r3, [pc, #816]	; (102734 <_vfiprintf_r+0xa2c>)
  102404:	9806      	ldr	r0, [sp, #24]
  102406:	449d      	add	sp, r3
  102408:	bc3c      	pop	{r2, r3, r4, r5}
  10240a:	4690      	mov	r8, r2
  10240c:	4699      	mov	r9, r3
  10240e:	46a2      	mov	sl, r4
  102410:	46ab      	mov	fp, r5
  102412:	bcf0      	pop	{r4, r5, r6, r7}
  102414:	bc02      	pop	{r1}
  102416:	4708      	bx	r1
  102418:	9b07      	ldr	r3, [sp, #28]
  10241a:	9804      	ldr	r0, [sp, #16]
  10241c:	1a1e      	subs	r6, r3, r0
  10241e:	2e00      	cmp	r6, #0
  102420:	dc00      	bgt.n	102424 <_vfiprintf_r+0x71c>
  102422:	e6f7      	b.n	102214 <_vfiprintf_r+0x50c>
  102424:	2e10      	cmp	r6, #16
  102426:	dc00      	bgt.n	10242a <_vfiprintf_r+0x722>
  102428:	e163      	b.n	1026f2 <_vfiprintf_r+0x9ea>
  10242a:	4ac3      	ldr	r2, [pc, #780]	; (102738 <_vfiprintf_r+0xa30>)
  10242c:	2310      	movs	r3, #16
  10242e:	4692      	mov	sl, r2
  102430:	4698      	mov	r8, r3
  102432:	465a      	mov	r2, fp
  102434:	4699      	mov	r9, r3
  102436:	46bb      	mov	fp, r7
  102438:	1c2b      	adds	r3, r5, #0
  10243a:	44d0      	add	r8, sl
  10243c:	9d03      	ldr	r5, [sp, #12]
  10243e:	1c17      	adds	r7, r2, #0
  102440:	e002      	b.n	102448 <_vfiprintf_r+0x740>
  102442:	3e10      	subs	r6, #16
  102444:	2e10      	cmp	r6, #16
  102446:	dd18      	ble.n	10247a <_vfiprintf_r+0x772>
  102448:	464a      	mov	r2, r9
  10244a:	605a      	str	r2, [r3, #4]
  10244c:	68a2      	ldr	r2, [r4, #8]
  10244e:	3210      	adds	r2, #16
  102450:	60a2      	str	r2, [r4, #8]
  102452:	6862      	ldr	r2, [r4, #4]
  102454:	4641      	mov	r1, r8
  102456:	3201      	adds	r2, #1
  102458:	6019      	str	r1, [r3, #0]
  10245a:	6062      	str	r2, [r4, #4]
  10245c:	3308      	adds	r3, #8
  10245e:	2a07      	cmp	r2, #7
  102460:	ddef      	ble.n	102442 <_vfiprintf_r+0x73a>
  102462:	1c28      	adds	r0, r5, #0
  102464:	1c39      	adds	r1, r7, #0
  102466:	1c22      	adds	r2, r4, #0
  102468:	f7ff fc0c 	bl	101c84 <__sprint_r>
  10246c:	2800      	cmp	r0, #0
  10246e:	d137      	bne.n	1024e0 <_vfiprintf_r+0x7d8>
  102470:	abff      	add	r3, sp, #1020	; 0x3fc
  102472:	3e10      	subs	r6, #16
  102474:	33a4      	adds	r3, #164	; 0xa4
  102476:	2e10      	cmp	r6, #16
  102478:	dce6      	bgt.n	102448 <_vfiprintf_r+0x740>
  10247a:	1c1d      	adds	r5, r3, #0
  10247c:	1c3b      	adds	r3, r7, #0
  10247e:	465f      	mov	r7, fp
  102480:	469b      	mov	fp, r3
  102482:	4653      	mov	r3, sl
  102484:	3310      	adds	r3, #16
  102486:	602b      	str	r3, [r5, #0]
  102488:	68a3      	ldr	r3, [r4, #8]
  10248a:	199b      	adds	r3, r3, r6
  10248c:	60a3      	str	r3, [r4, #8]
  10248e:	6863      	ldr	r3, [r4, #4]
  102490:	3301      	adds	r3, #1
  102492:	606e      	str	r6, [r5, #4]
  102494:	6063      	str	r3, [r4, #4]
  102496:	3508      	adds	r5, #8
  102498:	2b07      	cmp	r3, #7
  10249a:	dc00      	bgt.n	10249e <_vfiprintf_r+0x796>
  10249c:	e6ba      	b.n	102214 <_vfiprintf_r+0x50c>
  10249e:	9803      	ldr	r0, [sp, #12]
  1024a0:	4659      	mov	r1, fp
  1024a2:	1c22      	adds	r2, r4, #0
  1024a4:	f7ff fbee 	bl	101c84 <__sprint_r>
  1024a8:	2800      	cmp	r0, #0
  1024aa:	d1a3      	bne.n	1023f4 <_vfiprintf_r+0x6ec>
  1024ac:	adff      	add	r5, sp, #1020	; 0x3fc
  1024ae:	35a4      	adds	r5, #164	; 0xa4
  1024b0:	e6b0      	b.n	102214 <_vfiprintf_r+0x50c>
  1024b2:	9803      	ldr	r0, [sp, #12]
  1024b4:	4659      	mov	r1, fp
  1024b6:	1c22      	adds	r2, r4, #0
  1024b8:	f7ff fbe4 	bl	101c84 <__sprint_r>
  1024bc:	2800      	cmp	r0, #0
  1024be:	d199      	bne.n	1023f4 <_vfiprintf_r+0x6ec>
  1024c0:	abff      	add	r3, sp, #1020	; 0x3fc
  1024c2:	33a4      	adds	r3, #164	; 0xa4
  1024c4:	e701      	b.n	1022ca <_vfiprintf_r+0x5c2>
  1024c6:	9803      	ldr	r0, [sp, #12]
  1024c8:	4659      	mov	r1, fp
  1024ca:	1c22      	adds	r2, r4, #0
  1024cc:	f7ff fbda 	bl	101c84 <__sprint_r>
  1024d0:	2800      	cmp	r0, #0
  1024d2:	d100      	bne.n	1024d6 <_vfiprintf_r+0x7ce>
  1024d4:	e742      	b.n	10235c <_vfiprintf_r+0x654>
  1024d6:	e78d      	b.n	1023f4 <_vfiprintf_r+0x6ec>
  1024d8:	2300      	movs	r3, #0
  1024da:	9305      	str	r3, [sp, #20]
  1024dc:	940b      	str	r4, [sp, #44]	; 0x2c
  1024de:	e766      	b.n	1023ae <_vfiprintf_r+0x6a6>
  1024e0:	46bb      	mov	fp, r7
  1024e2:	e787      	b.n	1023f4 <_vfiprintf_r+0x6ec>
  1024e4:	9803      	ldr	r0, [sp, #12]
  1024e6:	4659      	mov	r1, fp
  1024e8:	f000 f93e 	bl	102768 <__swsetup_r>
  1024ec:	2800      	cmp	r0, #0
  1024ee:	d000      	beq.n	1024f2 <_vfiprintf_r+0x7ea>
  1024f0:	e784      	b.n	1023fc <_vfiprintf_r+0x6f4>
  1024f2:	4659      	mov	r1, fp
  1024f4:	898a      	ldrh	r2, [r1, #12]
  1024f6:	211a      	movs	r1, #26
  1024f8:	1c13      	adds	r3, r2, #0
  1024fa:	400b      	ands	r3, r1
  1024fc:	2b0a      	cmp	r3, #10
  1024fe:	d000      	beq.n	102502 <_vfiprintf_r+0x7fa>
  102500:	e430      	b.n	101d64 <_vfiprintf_r+0x5c>
  102502:	465b      	mov	r3, fp
  102504:	89d9      	ldrh	r1, [r3, #14]
  102506:	040b      	lsls	r3, r1, #16
  102508:	141b      	asrs	r3, r3, #16
  10250a:	d500      	bpl.n	10250e <_vfiprintf_r+0x806>
  10250c:	e42a      	b.n	101d64 <_vfiprintf_r+0x5c>
  10250e:	4658      	mov	r0, fp
  102510:	2302      	movs	r3, #2
  102512:	439a      	bics	r2, r3
  102514:	acff      	add	r4, sp, #1020	; 0x3fc
  102516:	6e43      	ldr	r3, [r0, #100]	; 0x64
  102518:	343c      	adds	r4, #60	; 0x3c
  10251a:	6663      	str	r3, [r4, #100]	; 0x64
  10251c:	69c3      	ldr	r3, [r0, #28]
  10251e:	61e3      	str	r3, [r4, #28]
  102520:	6a43      	ldr	r3, [r0, #36]	; 0x24
  102522:	6263      	str	r3, [r4, #36]	; 0x24
  102524:	2380      	movs	r3, #128	; 0x80
  102526:	00db      	lsls	r3, r3, #3
  102528:	81e1      	strh	r1, [r4, #14]
  10252a:	60a3      	str	r3, [r4, #8]
  10252c:	a90e      	add	r1, sp, #56	; 0x38
  10252e:	6163      	str	r3, [r4, #20]
  102530:	2300      	movs	r3, #0
  102532:	81a2      	strh	r2, [r4, #12]
  102534:	6021      	str	r1, [r4, #0]
  102536:	6121      	str	r1, [r4, #16]
  102538:	61a3      	str	r3, [r4, #24]
  10253a:	9803      	ldr	r0, [sp, #12]
  10253c:	1c21      	adds	r1, r4, #0
  10253e:	1c2a      	adds	r2, r5, #0
  102540:	9b08      	ldr	r3, [sp, #32]
  102542:	f7ff fbe1 	bl	101d08 <_vfiprintf_r>
  102546:	9006      	str	r0, [sp, #24]
  102548:	2800      	cmp	r0, #0
  10254a:	db06      	blt.n	10255a <_vfiprintf_r+0x852>
  10254c:	9803      	ldr	r0, [sp, #12]
  10254e:	1c21      	adds	r1, r4, #0
  102550:	f000 f968 	bl	102824 <_fflush_r>
  102554:	2800      	cmp	r0, #0
  102556:	d000      	beq.n	10255a <_vfiprintf_r+0x852>
  102558:	e0e0      	b.n	10271c <_vfiprintf_r+0xa14>
  10255a:	89a3      	ldrh	r3, [r4, #12]
  10255c:	065a      	lsls	r2, r3, #25
  10255e:	d400      	bmi.n	102562 <_vfiprintf_r+0x85a>
  102560:	e74f      	b.n	102402 <_vfiprintf_r+0x6fa>
  102562:	465b      	mov	r3, fp
  102564:	899a      	ldrh	r2, [r3, #12]
  102566:	2340      	movs	r3, #64	; 0x40
  102568:	4313      	orrs	r3, r2
  10256a:	4658      	mov	r0, fp
  10256c:	8183      	strh	r3, [r0, #12]
  10256e:	e748      	b.n	102402 <_vfiprintf_r+0x6fa>
  102570:	9803      	ldr	r0, [sp, #12]
  102572:	4659      	mov	r1, fp
  102574:	1c22      	adds	r2, r4, #0
  102576:	f7ff fb85 	bl	101c84 <__sprint_r>
  10257a:	2800      	cmp	r0, #0
  10257c:	d000      	beq.n	102580 <_vfiprintf_r+0x878>
  10257e:	e739      	b.n	1023f4 <_vfiprintf_r+0x6ec>
  102580:	adff      	add	r5, sp, #1020	; 0x3fc
  102582:	35a4      	adds	r5, #164	; 0xa4
  102584:	f7ff fc21 	bl	101dca <_vfiprintf_r+0xc2>
  102588:	9803      	ldr	r0, [sp, #12]
  10258a:	4659      	mov	r1, fp
  10258c:	1c22      	adds	r2, r4, #0
  10258e:	f7ff fb79 	bl	101c84 <__sprint_r>
  102592:	2800      	cmp	r0, #0
  102594:	d000      	beq.n	102598 <_vfiprintf_r+0x890>
  102596:	e72d      	b.n	1023f4 <_vfiprintf_r+0x6ec>
  102598:	adff      	add	r5, sp, #1020	; 0x3fc
  10259a:	35a4      	adds	r5, #164	; 0xa4
  10259c:	e624      	b.n	1021e8 <_vfiprintf_r+0x4e0>
  10259e:	9803      	ldr	r0, [sp, #12]
  1025a0:	4659      	mov	r1, fp
  1025a2:	1c22      	adds	r2, r4, #0
  1025a4:	f7ff fb6e 	bl	101c84 <__sprint_r>
  1025a8:	2800      	cmp	r0, #0
  1025aa:	d000      	beq.n	1025ae <_vfiprintf_r+0x8a6>
  1025ac:	e722      	b.n	1023f4 <_vfiprintf_r+0x6ec>
  1025ae:	adff      	add	r5, sp, #1020	; 0x3fc
  1025b0:	35a4      	adds	r5, #164	; 0xa4
  1025b2:	e62b      	b.n	10220c <_vfiprintf_r+0x504>
  1025b4:	f000 fa52 	bl	102a5c <__sinit>
  1025b8:	f7ff fbb9 	bl	101d2e <_vfiprintf_r+0x26>
  1025bc:	2000      	movs	r0, #0
  1025be:	9005      	str	r0, [sp, #20]
  1025c0:	940b      	str	r4, [sp, #44]	; 0x2c
  1025c2:	e6f4      	b.n	1023ae <_vfiprintf_r+0x6a6>
  1025c4:	980c      	ldr	r0, [sp, #48]	; 0x30
  1025c6:	1c23      	adds	r3, r4, #0
  1025c8:	220f      	movs	r2, #15
  1025ca:	1c11      	adds	r1, r2, #0
  1025cc:	4031      	ands	r1, r6
  1025ce:	5c41      	ldrb	r1, [r0, r1]
  1025d0:	3b01      	subs	r3, #1
  1025d2:	7019      	strb	r1, [r3, #0]
  1025d4:	0936      	lsrs	r6, r6, #4
  1025d6:	d1f8      	bne.n	1025ca <_vfiprintf_r+0x8c2>
  1025d8:	930b      	str	r3, [sp, #44]	; 0x2c
  1025da:	1ae3      	subs	r3, r4, r3
  1025dc:	9305      	str	r3, [sp, #20]
  1025de:	e6e6      	b.n	1023ae <_vfiprintf_r+0x6a6>
  1025e0:	2e09      	cmp	r6, #9
  1025e2:	d923      	bls.n	10262c <_vfiprintf_r+0x924>
  1025e4:	46b9      	mov	r9, r7
  1025e6:	1c2f      	adds	r7, r5, #0
  1025e8:	1c25      	adds	r5, r4, #0
  1025ea:	1c30      	adds	r0, r6, #0
  1025ec:	210a      	movs	r1, #10
  1025ee:	f001 ff53 	bl	104498 <____aeabi_uidivmod_from_thumb>
  1025f2:	3d01      	subs	r5, #1
  1025f4:	3130      	adds	r1, #48	; 0x30
  1025f6:	7029      	strb	r1, [r5, #0]
  1025f8:	1c30      	adds	r0, r6, #0
  1025fa:	210a      	movs	r1, #10
  1025fc:	f001 ff50 	bl	1044a0 <____aeabi_uidiv_from_thumb>
  102600:	1e06      	subs	r6, r0, #0
  102602:	d1f2      	bne.n	1025ea <_vfiprintf_r+0x8e2>
  102604:	950b      	str	r5, [sp, #44]	; 0x2c
  102606:	1c3d      	adds	r5, r7, #0
  102608:	464f      	mov	r7, r9
  10260a:	9a0b      	ldr	r2, [sp, #44]	; 0x2c
  10260c:	1aa2      	subs	r2, r4, r2
  10260e:	9205      	str	r2, [sp, #20]
  102610:	e6cd      	b.n	1023ae <_vfiprintf_r+0x6a6>
  102612:	9902      	ldr	r1, [sp, #8]
  102614:	0649      	lsls	r1, r1, #25
  102616:	d51d      	bpl.n	102654 <_vfiprintf_r+0x94c>
  102618:	9a08      	ldr	r2, [sp, #32]
  10261a:	8816      	ldrh	r6, [r2, #0]
  10261c:	1c32      	adds	r2, r6, #0
  10261e:	1e53      	subs	r3, r2, #1
  102620:	419a      	sbcs	r2, r3
  102622:	9b08      	ldr	r3, [sp, #32]
  102624:	3304      	adds	r3, #4
  102626:	9308      	str	r3, [sp, #32]
  102628:	2300      	movs	r3, #0
  10262a:	e428      	b.n	101e7e <_vfiprintf_r+0x176>
  10262c:	4943      	ldr	r1, [pc, #268]	; (10273c <_vfiprintf_r+0xa34>)
  10262e:	aaff      	add	r2, sp, #1020	; 0x3fc
  102630:	980d      	ldr	r0, [sp, #52]	; 0x34
  102632:	3630      	adds	r6, #48	; 0x30
  102634:	2327      	movs	r3, #39	; 0x27
  102636:	32e4      	adds	r2, #228	; 0xe4
  102638:	4469      	add	r1, sp
  10263a:	54d6      	strb	r6, [r2, r3]
  10263c:	9005      	str	r0, [sp, #20]
  10263e:	910b      	str	r1, [sp, #44]	; 0x2c
  102640:	e6b5      	b.n	1023ae <_vfiprintf_r+0x6a6>
  102642:	990b      	ldr	r1, [sp, #44]	; 0x2c
  102644:	1a61      	subs	r1, r4, r1
  102646:	9105      	str	r1, [sp, #20]
  102648:	e6b1      	b.n	1023ae <_vfiprintf_r+0x6a6>
  10264a:	9808      	ldr	r0, [sp, #32]
  10264c:	8806      	ldrh	r6, [r0, #0]
  10264e:	3004      	adds	r0, #4
  102650:	9008      	str	r0, [sp, #32]
  102652:	e4ad      	b.n	101fb0 <_vfiprintf_r+0x2a8>
  102654:	9808      	ldr	r0, [sp, #32]
  102656:	6806      	ldr	r6, [r0, #0]
  102658:	3004      	adds	r0, #4
  10265a:	1c32      	adds	r2, r6, #0
  10265c:	1e53      	subs	r3, r2, #1
  10265e:	419a      	sbcs	r2, r3
  102660:	9008      	str	r0, [sp, #32]
  102662:	2300      	movs	r3, #0
  102664:	f7ff fc0b 	bl	101e7e <_vfiprintf_r+0x176>
  102668:	9808      	ldr	r0, [sp, #32]
  10266a:	9906      	ldr	r1, [sp, #24]
  10266c:	6803      	ldr	r3, [r0, #0]
  10266e:	3004      	adds	r0, #4
  102670:	6019      	str	r1, [r3, #0]
  102672:	9008      	str	r0, [sp, #32]
  102674:	f7ff fb8a 	bl	101d8c <_vfiprintf_r+0x84>
  102678:	9808      	ldr	r0, [sp, #32]
  10267a:	9908      	ldr	r1, [sp, #32]
  10267c:	2600      	movs	r6, #0
  10267e:	5f86      	ldrsh	r6, [r0, r6]
  102680:	3104      	adds	r1, #4
  102682:	9108      	str	r1, [sp, #32]
  102684:	2e00      	cmp	r6, #0
  102686:	db00      	blt.n	10268a <_vfiprintf_r+0x982>
  102688:	e530      	b.n	1020ec <_vfiprintf_r+0x3e4>
  10268a:	482d      	ldr	r0, [pc, #180]	; (102740 <_vfiprintf_r+0xa38>)
  10268c:	232d      	movs	r3, #45	; 0x2d
  10268e:	4468      	add	r0, sp
  102690:	4276      	negs	r6, r6
  102692:	7003      	strb	r3, [r0, #0]
  102694:	e52a      	b.n	1020ec <_vfiprintf_r+0x3e4>
  102696:	46ab      	mov	fp, r5
  102698:	e6ac      	b.n	1023f4 <_vfiprintf_r+0x6ec>
  10269a:	4927      	ldr	r1, [pc, #156]	; (102738 <_vfiprintf_r+0xa30>)
  10269c:	468a      	mov	sl, r1
  10269e:	e5ee      	b.n	10227e <_vfiprintf_r+0x576>
  1026a0:	2100      	movs	r1, #0
  1026a2:	9109      	str	r1, [sp, #36]	; 0x24
  1026a4:	e685      	b.n	1023b2 <_vfiprintf_r+0x6aa>
  1026a6:	9a08      	ldr	r2, [sp, #32]
  1026a8:	9806      	ldr	r0, [sp, #24]
  1026aa:	6813      	ldr	r3, [r2, #0]
  1026ac:	3204      	adds	r2, #4
  1026ae:	6018      	str	r0, [r3, #0]
  1026b0:	9208      	str	r2, [sp, #32]
  1026b2:	f7ff fb6b 	bl	101d8c <_vfiprintf_r+0x84>
  1026b6:	980b      	ldr	r0, [sp, #44]	; 0x2c
  1026b8:	f001 fcdc 	bl	104074 <strlen>
  1026bc:	2200      	movs	r2, #0
  1026be:	9005      	str	r0, [sp, #20]
  1026c0:	9209      	str	r2, [sp, #36]	; 0x24
  1026c2:	e676      	b.n	1023b2 <_vfiprintf_r+0x6aa>
  1026c4:	4642      	mov	r2, r8
  1026c6:	9205      	str	r2, [sp, #20]
  1026c8:	2a06      	cmp	r2, #6
  1026ca:	d909      	bls.n	1026e0 <_vfiprintf_r+0x9d8>
  1026cc:	2006      	movs	r0, #6
  1026ce:	2106      	movs	r1, #6
  1026d0:	9005      	str	r0, [sp, #20]
  1026d2:	9104      	str	r1, [sp, #16]
  1026d4:	4b1b      	ldr	r3, [pc, #108]	; (102744 <_vfiprintf_r+0xa3c>)
  1026d6:	930b      	str	r3, [sp, #44]	; 0x2c
  1026d8:	e51e      	b.n	102118 <_vfiprintf_r+0x410>
  1026da:	4b17      	ldr	r3, [pc, #92]	; (102738 <_vfiprintf_r+0xa30>)
  1026dc:	469a      	mov	sl, r3
  1026de:	e55b      	b.n	102198 <_vfiprintf_r+0x490>
  1026e0:	9a05      	ldr	r2, [sp, #20]
  1026e2:	43d3      	mvns	r3, r2
  1026e4:	17db      	asrs	r3, r3, #31
  1026e6:	401a      	ands	r2, r3
  1026e8:	9204      	str	r2, [sp, #16]
  1026ea:	e7f3      	b.n	1026d4 <_vfiprintf_r+0x9cc>
  1026ec:	4912      	ldr	r1, [pc, #72]	; (102738 <_vfiprintf_r+0xa30>)
  1026ee:	468a      	mov	sl, r1
  1026f0:	e617      	b.n	102322 <_vfiprintf_r+0x61a>
  1026f2:	4911      	ldr	r1, [pc, #68]	; (102738 <_vfiprintf_r+0xa30>)
  1026f4:	468a      	mov	sl, r1
  1026f6:	e6c4      	b.n	102482 <_vfiprintf_r+0x77a>
  1026f8:	4642      	mov	r2, r8
  1026fa:	2000      	movs	r0, #0
  1026fc:	9205      	str	r2, [sp, #20]
  1026fe:	9009      	str	r0, [sp, #36]	; 0x24
  102700:	e657      	b.n	1023b2 <_vfiprintf_r+0x6aa>
  102702:	9b08      	ldr	r3, [sp, #32]
  102704:	4699      	mov	r9, r3
  102706:	2304      	movs	r3, #4
  102708:	4499      	add	r9, r3
  10270a:	9b08      	ldr	r3, [sp, #32]
  10270c:	681a      	ldr	r2, [r3, #0]
  10270e:	4690      	mov	r8, r2
  102710:	2a00      	cmp	r2, #0
  102712:	db07      	blt.n	102724 <_vfiprintf_r+0xa1c>
  102714:	464a      	mov	r2, r9
  102716:	9208      	str	r2, [sp, #32]
  102718:	f7ff fb73 	bl	101e02 <_vfiprintf_r+0xfa>
  10271c:	2301      	movs	r3, #1
  10271e:	425b      	negs	r3, r3
  102720:	9306      	str	r3, [sp, #24]
  102722:	e71a      	b.n	10255a <_vfiprintf_r+0x852>
  102724:	2301      	movs	r3, #1
  102726:	464a      	mov	r2, r9
  102728:	425b      	negs	r3, r3
  10272a:	9208      	str	r2, [sp, #32]
  10272c:	4698      	mov	r8, r3
  10272e:	f7ff fb68 	bl	101e02 <_vfiprintf_r+0xfa>
  102732:	46c0      	nop			; (mov r8, r8)
  102734:	0000051c 	.word	0x0000051c
  102738:	00104620 	.word	0x00104620
  10273c:	00000507 	.word	0x00000507
  102740:	00000517 	.word	0x00000517
  102744:	00104b34 	.word	0x00104b34

00102748 <vfiprintf>:
  102748:	b538      	push	{r3, r4, r5, lr}
  10274a:	1c13      	adds	r3, r2, #0
  10274c:	4a05      	ldr	r2, [pc, #20]	; (102764 <vfiprintf+0x1c>)
  10274e:	1c05      	adds	r5, r0, #0
  102750:	1c0c      	adds	r4, r1, #0
  102752:	6810      	ldr	r0, [r2, #0]
  102754:	1c29      	adds	r1, r5, #0
  102756:	1c22      	adds	r2, r4, #0
  102758:	f7ff fad6 	bl	101d08 <_vfiprintf_r>
  10275c:	bc38      	pop	{r3, r4, r5}
  10275e:	bc02      	pop	{r1}
  102760:	4708      	bx	r1
  102762:	46c0      	nop			; (mov r8, r8)
  102764:	00200000 	.word	0x00200000

00102768 <__swsetup_r>:
  102768:	b538      	push	{r3, r4, r5, lr}
  10276a:	4b2d      	ldr	r3, [pc, #180]	; (102820 <__swsetup_r+0xb8>)
  10276c:	1c05      	adds	r5, r0, #0
  10276e:	6818      	ldr	r0, [r3, #0]
  102770:	1c0c      	adds	r4, r1, #0
  102772:	2800      	cmp	r0, #0
  102774:	d002      	beq.n	10277c <__swsetup_r+0x14>
  102776:	6b83      	ldr	r3, [r0, #56]	; 0x38
  102778:	2b00      	cmp	r3, #0
  10277a:	d037      	beq.n	1027ec <__swsetup_r+0x84>
  10277c:	89a0      	ldrh	r0, [r4, #12]
  10277e:	1c03      	adds	r3, r0, #0
  102780:	0701      	lsls	r1, r0, #28
  102782:	d50f      	bpl.n	1027a4 <__swsetup_r+0x3c>
  102784:	6922      	ldr	r2, [r4, #16]
  102786:	2a00      	cmp	r2, #0
  102788:	d016      	beq.n	1027b8 <__swsetup_r+0x50>
  10278a:	07d8      	lsls	r0, r3, #31
  10278c:	d522      	bpl.n	1027d4 <__swsetup_r+0x6c>
  10278e:	2300      	movs	r3, #0
  102790:	60a3      	str	r3, [r4, #8]
  102792:	6963      	ldr	r3, [r4, #20]
  102794:	425b      	negs	r3, r3
  102796:	61a3      	str	r3, [r4, #24]
  102798:	2000      	movs	r0, #0
  10279a:	2a00      	cmp	r2, #0
  10279c:	d022      	beq.n	1027e4 <__swsetup_r+0x7c>
  10279e:	bc38      	pop	{r3, r4, r5}
  1027a0:	bc02      	pop	{r1}
  1027a2:	4708      	bx	r1
  1027a4:	06c2      	lsls	r2, r0, #27
  1027a6:	d538      	bpl.n	10281a <__swsetup_r+0xb2>
  1027a8:	0741      	lsls	r1, r0, #29
  1027aa:	d422      	bmi.n	1027f2 <__swsetup_r+0x8a>
  1027ac:	6922      	ldr	r2, [r4, #16]
  1027ae:	2308      	movs	r3, #8
  1027b0:	4303      	orrs	r3, r0
  1027b2:	81a3      	strh	r3, [r4, #12]
  1027b4:	2a00      	cmp	r2, #0
  1027b6:	d1e8      	bne.n	10278a <__swsetup_r+0x22>
  1027b8:	20a0      	movs	r0, #160	; 0xa0
  1027ba:	0080      	lsls	r0, r0, #2
  1027bc:	2180      	movs	r1, #128	; 0x80
  1027be:	4018      	ands	r0, r3
  1027c0:	0089      	lsls	r1, r1, #2
  1027c2:	4288      	cmp	r0, r1
  1027c4:	d0e1      	beq.n	10278a <__swsetup_r+0x22>
  1027c6:	1c28      	adds	r0, r5, #0
  1027c8:	1c21      	adds	r1, r4, #0
  1027ca:	f000 fdcb 	bl	103364 <__smakebuf_r>
  1027ce:	89a3      	ldrh	r3, [r4, #12]
  1027d0:	6922      	ldr	r2, [r4, #16]
  1027d2:	e7da      	b.n	10278a <__swsetup_r+0x22>
  1027d4:	2100      	movs	r1, #0
  1027d6:	0798      	lsls	r0, r3, #30
  1027d8:	d400      	bmi.n	1027dc <__swsetup_r+0x74>
  1027da:	6961      	ldr	r1, [r4, #20]
  1027dc:	60a1      	str	r1, [r4, #8]
  1027de:	2000      	movs	r0, #0
  1027e0:	2a00      	cmp	r2, #0
  1027e2:	d1dc      	bne.n	10279e <__swsetup_r+0x36>
  1027e4:	89a0      	ldrh	r0, [r4, #12]
  1027e6:	0600      	lsls	r0, r0, #24
  1027e8:	17c0      	asrs	r0, r0, #31
  1027ea:	e7d8      	b.n	10279e <__swsetup_r+0x36>
  1027ec:	f000 f936 	bl	102a5c <__sinit>
  1027f0:	e7c4      	b.n	10277c <__swsetup_r+0x14>
  1027f2:	6b21      	ldr	r1, [r4, #48]	; 0x30
  1027f4:	2900      	cmp	r1, #0
  1027f6:	d009      	beq.n	10280c <__swsetup_r+0xa4>
  1027f8:	1c23      	adds	r3, r4, #0
  1027fa:	3340      	adds	r3, #64	; 0x40
  1027fc:	4299      	cmp	r1, r3
  1027fe:	d003      	beq.n	102808 <__swsetup_r+0xa0>
  102800:	1c28      	adds	r0, r5, #0
  102802:	f000 fa9b 	bl	102d3c <_free_r>
  102806:	89a0      	ldrh	r0, [r4, #12]
  102808:	2300      	movs	r3, #0
  10280a:	6323      	str	r3, [r4, #48]	; 0x30
  10280c:	2324      	movs	r3, #36	; 0x24
  10280e:	6922      	ldr	r2, [r4, #16]
  102810:	4398      	bics	r0, r3
  102812:	2300      	movs	r3, #0
  102814:	6063      	str	r3, [r4, #4]
  102816:	6022      	str	r2, [r4, #0]
  102818:	e7c9      	b.n	1027ae <__swsetup_r+0x46>
  10281a:	2001      	movs	r0, #1
  10281c:	4240      	negs	r0, r0
  10281e:	e7be      	b.n	10279e <__swsetup_r+0x36>
  102820:	00200000 	.word	0x00200000

00102824 <_fflush_r>:
  102824:	b5f8      	push	{r3, r4, r5, r6, r7, lr}
  102826:	1c06      	adds	r6, r0, #0
  102828:	1c0c      	adds	r4, r1, #0
  10282a:	2800      	cmp	r0, #0
  10282c:	d003      	beq.n	102836 <_fflush_r+0x12>
  10282e:	6b83      	ldr	r3, [r0, #56]	; 0x38
  102830:	2b00      	cmp	r3, #0
  102832:	d100      	bne.n	102836 <_fflush_r+0x12>
  102834:	e06a      	b.n	10290c <_fflush_r+0xe8>
  102836:	89a3      	ldrh	r3, [r4, #12]
  102838:	2000      	movs	r0, #0
  10283a:	2b00      	cmp	r3, #0
  10283c:	d040      	beq.n	1028c0 <_fflush_r+0x9c>
  10283e:	041a      	lsls	r2, r3, #16
  102840:	1412      	asrs	r2, r2, #16
  102842:	0711      	lsls	r1, r2, #28
  102844:	d43f      	bmi.n	1028c6 <_fflush_r+0xa2>
  102846:	2280      	movs	r2, #128	; 0x80
  102848:	0112      	lsls	r2, r2, #4
  10284a:	4313      	orrs	r3, r2
  10284c:	6862      	ldr	r2, [r4, #4]
  10284e:	81a3      	strh	r3, [r4, #12]
  102850:	2a00      	cmp	r2, #0
  102852:	dc00      	bgt.n	102856 <_fflush_r+0x32>
  102854:	e06d      	b.n	102932 <_fflush_r+0x10e>
  102856:	6aa7      	ldr	r7, [r4, #40]	; 0x28
  102858:	2000      	movs	r0, #0
  10285a:	2f00      	cmp	r7, #0
  10285c:	d030      	beq.n	1028c0 <_fflush_r+0x9c>
  10285e:	6835      	ldr	r5, [r6, #0]
  102860:	6030      	str	r0, [r6, #0]
  102862:	04da      	lsls	r2, r3, #19
  102864:	d557      	bpl.n	102916 <_fflush_r+0xf2>
  102866:	6d22      	ldr	r2, [r4, #80]	; 0x50
  102868:	0759      	lsls	r1, r3, #29
  10286a:	d506      	bpl.n	10287a <_fflush_r+0x56>
  10286c:	6863      	ldr	r3, [r4, #4]
  10286e:	1ad2      	subs	r2, r2, r3
  102870:	6b23      	ldr	r3, [r4, #48]	; 0x30
  102872:	2b00      	cmp	r3, #0
  102874:	d001      	beq.n	10287a <_fflush_r+0x56>
  102876:	6be3      	ldr	r3, [r4, #60]	; 0x3c
  102878:	1ad2      	subs	r2, r2, r3
  10287a:	69e1      	ldr	r1, [r4, #28]
  10287c:	1c30      	adds	r0, r6, #0
  10287e:	2300      	movs	r3, #0
  102880:	f000 f894 	bl	1029ac <fflush+0x2c>
  102884:	1c42      	adds	r2, r0, #1
  102886:	d059      	beq.n	10293c <_fflush_r+0x118>
  102888:	89a2      	ldrh	r2, [r4, #12]
  10288a:	4b3c      	ldr	r3, [pc, #240]	; (10297c <_fflush_r+0x158>)
  10288c:	4013      	ands	r3, r2
  10288e:	2200      	movs	r2, #0
  102890:	6062      	str	r2, [r4, #4]
  102892:	6922      	ldr	r2, [r4, #16]
  102894:	81a3      	strh	r3, [r4, #12]
  102896:	6022      	str	r2, [r4, #0]
  102898:	04d9      	lsls	r1, r3, #19
  10289a:	d502      	bpl.n	1028a2 <_fflush_r+0x7e>
  10289c:	1c42      	adds	r2, r0, #1
  10289e:	d059      	beq.n	102954 <_fflush_r+0x130>
  1028a0:	6520      	str	r0, [r4, #80]	; 0x50
  1028a2:	6b21      	ldr	r1, [r4, #48]	; 0x30
  1028a4:	6035      	str	r5, [r6, #0]
  1028a6:	2000      	movs	r0, #0
  1028a8:	2900      	cmp	r1, #0
  1028aa:	d009      	beq.n	1028c0 <_fflush_r+0x9c>
  1028ac:	1c23      	adds	r3, r4, #0
  1028ae:	3340      	adds	r3, #64	; 0x40
  1028b0:	4299      	cmp	r1, r3
  1028b2:	d002      	beq.n	1028ba <_fflush_r+0x96>
  1028b4:	1c30      	adds	r0, r6, #0
  1028b6:	f000 fa41 	bl	102d3c <_free_r>
  1028ba:	2300      	movs	r3, #0
  1028bc:	6323      	str	r3, [r4, #48]	; 0x30
  1028be:	2000      	movs	r0, #0
  1028c0:	bcf8      	pop	{r3, r4, r5, r6, r7}
  1028c2:	bc02      	pop	{r1}
  1028c4:	4708      	bx	r1
  1028c6:	6927      	ldr	r7, [r4, #16]
  1028c8:	2f00      	cmp	r7, #0
  1028ca:	d0f9      	beq.n	1028c0 <_fflush_r+0x9c>
  1028cc:	6825      	ldr	r5, [r4, #0]
  1028ce:	2300      	movs	r3, #0
  1028d0:	1bed      	subs	r5, r5, r7
  1028d2:	6027      	str	r7, [r4, #0]
  1028d4:	0791      	lsls	r1, r2, #30
  1028d6:	d01c      	beq.n	102912 <_fflush_r+0xee>
  1028d8:	60a3      	str	r3, [r4, #8]
  1028da:	2000      	movs	r0, #0
  1028dc:	2d00      	cmp	r5, #0
  1028de:	dc04      	bgt.n	1028ea <_fflush_r+0xc6>
  1028e0:	e7ee      	b.n	1028c0 <_fflush_r+0x9c>
  1028e2:	183f      	adds	r7, r7, r0
  1028e4:	1a2d      	subs	r5, r5, r0
  1028e6:	2d00      	cmp	r5, #0
  1028e8:	dd21      	ble.n	10292e <_fflush_r+0x10a>
  1028ea:	6a62      	ldr	r2, [r4, #36]	; 0x24
  1028ec:	69e1      	ldr	r1, [r4, #28]
  1028ee:	4694      	mov	ip, r2
  1028f0:	1c30      	adds	r0, r6, #0
  1028f2:	1c3a      	adds	r2, r7, #0
  1028f4:	1c2b      	adds	r3, r5, #0
  1028f6:	f000 f85a 	bl	1029ae <fflush+0x2e>
  1028fa:	2800      	cmp	r0, #0
  1028fc:	dcf1      	bgt.n	1028e2 <_fflush_r+0xbe>
  1028fe:	89a2      	ldrh	r2, [r4, #12]
  102900:	2340      	movs	r3, #64	; 0x40
  102902:	4313      	orrs	r3, r2
  102904:	2001      	movs	r0, #1
  102906:	81a3      	strh	r3, [r4, #12]
  102908:	4240      	negs	r0, r0
  10290a:	e7d9      	b.n	1028c0 <_fflush_r+0x9c>
  10290c:	f000 f8a6 	bl	102a5c <__sinit>
  102910:	e791      	b.n	102836 <_fflush_r+0x12>
  102912:	6963      	ldr	r3, [r4, #20]
  102914:	e7e0      	b.n	1028d8 <_fflush_r+0xb4>
  102916:	2200      	movs	r2, #0
  102918:	69e1      	ldr	r1, [r4, #28]
  10291a:	1c30      	adds	r0, r6, #0
  10291c:	2301      	movs	r3, #1
  10291e:	f000 f845 	bl	1029ac <fflush+0x2c>
  102922:	1c02      	adds	r2, r0, #0
  102924:	1c43      	adds	r3, r0, #1
  102926:	d019      	beq.n	10295c <_fflush_r+0x138>
  102928:	89a3      	ldrh	r3, [r4, #12]
  10292a:	6aa7      	ldr	r7, [r4, #40]	; 0x28
  10292c:	e79c      	b.n	102868 <_fflush_r+0x44>
  10292e:	2000      	movs	r0, #0
  102930:	e7c6      	b.n	1028c0 <_fflush_r+0x9c>
  102932:	6be2      	ldr	r2, [r4, #60]	; 0x3c
  102934:	2a00      	cmp	r2, #0
  102936:	dd00      	ble.n	10293a <_fflush_r+0x116>
  102938:	e78d      	b.n	102856 <_fflush_r+0x32>
  10293a:	e7c1      	b.n	1028c0 <_fflush_r+0x9c>
  10293c:	6833      	ldr	r3, [r6, #0]
  10293e:	2b00      	cmp	r3, #0
  102940:	d0a2      	beq.n	102888 <_fflush_r+0x64>
  102942:	2b1d      	cmp	r3, #29
  102944:	d0a0      	beq.n	102888 <_fflush_r+0x64>
  102946:	2b16      	cmp	r3, #22
  102948:	d09e      	beq.n	102888 <_fflush_r+0x64>
  10294a:	89a2      	ldrh	r2, [r4, #12]
  10294c:	2340      	movs	r3, #64	; 0x40
  10294e:	4313      	orrs	r3, r2
  102950:	81a3      	strh	r3, [r4, #12]
  102952:	e7b5      	b.n	1028c0 <_fflush_r+0x9c>
  102954:	6833      	ldr	r3, [r6, #0]
  102956:	2b00      	cmp	r3, #0
  102958:	d1a3      	bne.n	1028a2 <_fflush_r+0x7e>
  10295a:	e7a1      	b.n	1028a0 <_fflush_r+0x7c>
  10295c:	6833      	ldr	r3, [r6, #0]
  10295e:	2b00      	cmp	r3, #0
  102960:	d0e2      	beq.n	102928 <_fflush_r+0x104>
  102962:	2b16      	cmp	r3, #22
  102964:	d001      	beq.n	10296a <_fflush_r+0x146>
  102966:	2b1d      	cmp	r3, #29
  102968:	d102      	bne.n	102970 <_fflush_r+0x14c>
  10296a:	6035      	str	r5, [r6, #0]
  10296c:	2000      	movs	r0, #0
  10296e:	e7a7      	b.n	1028c0 <_fflush_r+0x9c>
  102970:	89a1      	ldrh	r1, [r4, #12]
  102972:	2340      	movs	r3, #64	; 0x40
  102974:	430b      	orrs	r3, r1
  102976:	81a3      	strh	r3, [r4, #12]
  102978:	e7a2      	b.n	1028c0 <_fflush_r+0x9c>
  10297a:	46c0      	nop			; (mov r8, r8)
  10297c:	fffff7ff 	.word	0xfffff7ff

00102980 <fflush>:
  102980:	b508      	push	{r3, lr}
  102982:	1e01      	subs	r1, r0, #0
  102984:	d006      	beq.n	102994 <fflush+0x14>
  102986:	4b06      	ldr	r3, [pc, #24]	; (1029a0 <fflush+0x20>)
  102988:	6818      	ldr	r0, [r3, #0]
  10298a:	f7ff ff4b 	bl	102824 <_fflush_r>
  10298e:	bc08      	pop	{r3}
  102990:	bc02      	pop	{r1}
  102992:	4708      	bx	r1
  102994:	4b03      	ldr	r3, [pc, #12]	; (1029a4 <fflush+0x24>)
  102996:	4904      	ldr	r1, [pc, #16]	; (1029a8 <fflush+0x28>)
  102998:	6818      	ldr	r0, [r3, #0]
  10299a:	f000 fc5d 	bl	103258 <_fwalk_reent>
  10299e:	e7f6      	b.n	10298e <fflush+0xe>
  1029a0:	00200000 	.word	0x00200000
  1029a4:	001044b8 	.word	0x001044b8
  1029a8:	00102825 	.word	0x00102825
  1029ac:	4738      	bx	r7
  1029ae:	4760      	bx	ip

001029b0 <__fp_lock>:
  1029b0:	2000      	movs	r0, #0
  1029b2:	4770      	bx	lr

001029b4 <__fp_unlock>:
  1029b4:	2000      	movs	r0, #0
  1029b6:	4770      	bx	lr

001029b8 <_cleanup_r>:
  1029b8:	b508      	push	{r3, lr}
  1029ba:	4903      	ldr	r1, [pc, #12]	; (1029c8 <_cleanup_r+0x10>)
  1029bc:	f000 fc1e 	bl	1031fc <_fwalk>
  1029c0:	bc08      	pop	{r3}
  1029c2:	bc01      	pop	{r0}
  1029c4:	4700      	bx	r0
  1029c6:	46c0      	nop			; (mov r8, r8)
  1029c8:	00104335 	.word	0x00104335

001029cc <std.isra.0>:
  1029cc:	b510      	push	{r4, lr}
  1029ce:	2300      	movs	r3, #0
  1029d0:	1c04      	adds	r4, r0, #0
  1029d2:	6003      	str	r3, [r0, #0]
  1029d4:	6043      	str	r3, [r0, #4]
  1029d6:	6083      	str	r3, [r0, #8]
  1029d8:	8181      	strh	r1, [r0, #12]
  1029da:	6643      	str	r3, [r0, #100]	; 0x64
  1029dc:	81c2      	strh	r2, [r0, #14]
  1029de:	6103      	str	r3, [r0, #16]
  1029e0:	6143      	str	r3, [r0, #20]
  1029e2:	6183      	str	r3, [r0, #24]
  1029e4:	2100      	movs	r1, #0
  1029e6:	2208      	movs	r2, #8
  1029e8:	305c      	adds	r0, #92	; 0x5c
  1029ea:	f001 f8b1 	bl	103b50 <memset>
  1029ee:	4b06      	ldr	r3, [pc, #24]	; (102a08 <std.isra.0+0x3c>)
  1029f0:	6223      	str	r3, [r4, #32]
  1029f2:	4b06      	ldr	r3, [pc, #24]	; (102a0c <std.isra.0+0x40>)
  1029f4:	6263      	str	r3, [r4, #36]	; 0x24
  1029f6:	4b06      	ldr	r3, [pc, #24]	; (102a10 <std.isra.0+0x44>)
  1029f8:	62a3      	str	r3, [r4, #40]	; 0x28
  1029fa:	4b06      	ldr	r3, [pc, #24]	; (102a14 <std.isra.0+0x48>)
  1029fc:	61e4      	str	r4, [r4, #28]
  1029fe:	62e3      	str	r3, [r4, #44]	; 0x2c
  102a00:	bc10      	pop	{r4}
  102a02:	bc01      	pop	{r0}
  102a04:	4700      	bx	r0
  102a06:	46c0      	nop			; (mov r8, r8)
  102a08:	00103fb5 	.word	0x00103fb5
  102a0c:	00103fe5 	.word	0x00103fe5
  102a10:	00104021 	.word	0x00104021
  102a14:	00104051 	.word	0x00104051

00102a18 <__sfmoreglue>:
  102a18:	b570      	push	{r4, r5, r6, lr}
  102a1a:	2568      	movs	r5, #104	; 0x68
  102a1c:	434d      	muls	r5, r1
  102a1e:	1c0e      	adds	r6, r1, #0
  102a20:	1c29      	adds	r1, r5, #0
  102a22:	310c      	adds	r1, #12
  102a24:	f000 fd28 	bl	103478 <_malloc_r>
  102a28:	1e04      	subs	r4, r0, #0
  102a2a:	d008      	beq.n	102a3e <__sfmoreglue+0x26>
  102a2c:	300c      	adds	r0, #12
  102a2e:	2300      	movs	r3, #0
  102a30:	6023      	str	r3, [r4, #0]
  102a32:	6066      	str	r6, [r4, #4]
  102a34:	60a0      	str	r0, [r4, #8]
  102a36:	2100      	movs	r1, #0
  102a38:	1c2a      	adds	r2, r5, #0
  102a3a:	f001 f889 	bl	103b50 <memset>
  102a3e:	1c20      	adds	r0, r4, #0
  102a40:	bc70      	pop	{r4, r5, r6}
  102a42:	bc02      	pop	{r1}
  102a44:	4708      	bx	r1
  102a46:	46c0      	nop			; (mov r8, r8)

00102a48 <_cleanup>:
  102a48:	b508      	push	{r3, lr}
  102a4a:	4b03      	ldr	r3, [pc, #12]	; (102a58 <_cleanup+0x10>)
  102a4c:	6818      	ldr	r0, [r3, #0]
  102a4e:	f7ff ffb3 	bl	1029b8 <_cleanup_r>
  102a52:	bc08      	pop	{r3}
  102a54:	bc01      	pop	{r0}
  102a56:	4700      	bx	r0
  102a58:	001044b8 	.word	0x001044b8

00102a5c <__sinit>:
  102a5c:	b510      	push	{r4, lr}
  102a5e:	6b83      	ldr	r3, [r0, #56]	; 0x38
  102a60:	1c04      	adds	r4, r0, #0
  102a62:	2b00      	cmp	r3, #0
  102a64:	d11f      	bne.n	102aa6 <__sinit+0x4a>
  102a66:	4a11      	ldr	r2, [pc, #68]	; (102aac <__sinit+0x50>)
  102a68:	63c2      	str	r2, [r0, #60]	; 0x3c
  102a6a:	2201      	movs	r2, #1
  102a6c:	6382      	str	r2, [r0, #56]	; 0x38
  102a6e:	22b8      	movs	r2, #184	; 0xb8
  102a70:	0092      	lsls	r2, r2, #2
  102a72:	5083      	str	r3, [r0, r2]
  102a74:	23b9      	movs	r3, #185	; 0xb9
  102a76:	2203      	movs	r2, #3
  102a78:	009b      	lsls	r3, r3, #2
  102a7a:	50c2      	str	r2, [r0, r3]
  102a7c:	23bb      	movs	r3, #187	; 0xbb
  102a7e:	009b      	lsls	r3, r3, #2
  102a80:	18c2      	adds	r2, r0, r3
  102a82:	23ba      	movs	r3, #186	; 0xba
  102a84:	009b      	lsls	r3, r3, #2
  102a86:	50c2      	str	r2, [r0, r3]
  102a88:	2104      	movs	r1, #4
  102a8a:	6840      	ldr	r0, [r0, #4]
  102a8c:	2200      	movs	r2, #0
  102a8e:	f7ff ff9d 	bl	1029cc <std.isra.0>
  102a92:	68a0      	ldr	r0, [r4, #8]
  102a94:	2109      	movs	r1, #9
  102a96:	2201      	movs	r2, #1
  102a98:	f7ff ff98 	bl	1029cc <std.isra.0>
  102a9c:	68e0      	ldr	r0, [r4, #12]
  102a9e:	2112      	movs	r1, #18
  102aa0:	2202      	movs	r2, #2
  102aa2:	f7ff ff93 	bl	1029cc <std.isra.0>
  102aa6:	bc10      	pop	{r4}
  102aa8:	bc01      	pop	{r0}
  102aaa:	4700      	bx	r0
  102aac:	001029b9 	.word	0x001029b9

00102ab0 <__sfp>:
  102ab0:	b570      	push	{r4, r5, r6, lr}
  102ab2:	4b22      	ldr	r3, [pc, #136]	; (102b3c <__sfp+0x8c>)
  102ab4:	681d      	ldr	r5, [r3, #0]
  102ab6:	6bab      	ldr	r3, [r5, #56]	; 0x38
  102ab8:	1c06      	adds	r6, r0, #0
  102aba:	2b00      	cmp	r3, #0
  102abc:	d02e      	beq.n	102b1c <__sfp+0x6c>
  102abe:	21b8      	movs	r1, #184	; 0xb8
  102ac0:	0089      	lsls	r1, r1, #2
  102ac2:	186d      	adds	r5, r5, r1
  102ac4:	686b      	ldr	r3, [r5, #4]
  102ac6:	68ac      	ldr	r4, [r5, #8]
  102ac8:	3b01      	subs	r3, #1
  102aca:	d503      	bpl.n	102ad4 <__sfp+0x24>
  102acc:	e021      	b.n	102b12 <__sfp+0x62>
  102ace:	3b01      	subs	r3, #1
  102ad0:	d31f      	bcc.n	102b12 <__sfp+0x62>
  102ad2:	3468      	adds	r4, #104	; 0x68
  102ad4:	210c      	movs	r1, #12
  102ad6:	5e62      	ldrsh	r2, [r4, r1]
  102ad8:	2a00      	cmp	r2, #0
  102ada:	d1f8      	bne.n	102ace <__sfp+0x1e>
  102adc:	2301      	movs	r3, #1
  102ade:	425b      	negs	r3, r3
  102ae0:	2500      	movs	r5, #0
  102ae2:	81e3      	strh	r3, [r4, #14]
  102ae4:	1c20      	adds	r0, r4, #0
  102ae6:	2301      	movs	r3, #1
  102ae8:	81a3      	strh	r3, [r4, #12]
  102aea:	6665      	str	r5, [r4, #100]	; 0x64
  102aec:	6025      	str	r5, [r4, #0]
  102aee:	60a5      	str	r5, [r4, #8]
  102af0:	6065      	str	r5, [r4, #4]
  102af2:	6125      	str	r5, [r4, #16]
  102af4:	6165      	str	r5, [r4, #20]
  102af6:	61a5      	str	r5, [r4, #24]
  102af8:	305c      	adds	r0, #92	; 0x5c
  102afa:	2100      	movs	r1, #0
  102afc:	2208      	movs	r2, #8
  102afe:	f001 f827 	bl	103b50 <memset>
  102b02:	6325      	str	r5, [r4, #48]	; 0x30
  102b04:	6365      	str	r5, [r4, #52]	; 0x34
  102b06:	6465      	str	r5, [r4, #68]	; 0x44
  102b08:	64a5      	str	r5, [r4, #72]	; 0x48
  102b0a:	1c20      	adds	r0, r4, #0
  102b0c:	bc70      	pop	{r4, r5, r6}
  102b0e:	bc02      	pop	{r1}
  102b10:	4708      	bx	r1
  102b12:	6828      	ldr	r0, [r5, #0]
  102b14:	2800      	cmp	r0, #0
  102b16:	d005      	beq.n	102b24 <__sfp+0x74>
  102b18:	1c05      	adds	r5, r0, #0
  102b1a:	e7d3      	b.n	102ac4 <__sfp+0x14>
  102b1c:	1c28      	adds	r0, r5, #0
  102b1e:	f7ff ff9d 	bl	102a5c <__sinit>
  102b22:	e7cc      	b.n	102abe <__sfp+0xe>
  102b24:	1c30      	adds	r0, r6, #0
  102b26:	2104      	movs	r1, #4
  102b28:	f7ff ff76 	bl	102a18 <__sfmoreglue>
  102b2c:	6028      	str	r0, [r5, #0]
  102b2e:	2800      	cmp	r0, #0
  102b30:	d1f2      	bne.n	102b18 <__sfp+0x68>
  102b32:	230c      	movs	r3, #12
  102b34:	6033      	str	r3, [r6, #0]
  102b36:	2400      	movs	r4, #0
  102b38:	e7e7      	b.n	102b0a <__sfp+0x5a>
  102b3a:	46c0      	nop			; (mov r8, r8)
  102b3c:	001044b8 	.word	0x001044b8

00102b40 <__sfp_lock_acquire>:
  102b40:	4770      	bx	lr
  102b42:	46c0      	nop			; (mov r8, r8)

00102b44 <__sfp_lock_release>:
  102b44:	4770      	bx	lr
  102b46:	46c0      	nop			; (mov r8, r8)

00102b48 <__sinit_lock_acquire>:
  102b48:	4770      	bx	lr
  102b4a:	46c0      	nop			; (mov r8, r8)

00102b4c <__sinit_lock_release>:
  102b4c:	4770      	bx	lr
  102b4e:	46c0      	nop			; (mov r8, r8)

00102b50 <__fp_lock_all>:
  102b50:	b508      	push	{r3, lr}
  102b52:	4b04      	ldr	r3, [pc, #16]	; (102b64 <__fp_lock_all+0x14>)
  102b54:	4904      	ldr	r1, [pc, #16]	; (102b68 <__fp_lock_all+0x18>)
  102b56:	6818      	ldr	r0, [r3, #0]
  102b58:	f000 fb50 	bl	1031fc <_fwalk>
  102b5c:	bc08      	pop	{r3}
  102b5e:	bc01      	pop	{r0}
  102b60:	4700      	bx	r0
  102b62:	46c0      	nop			; (mov r8, r8)
  102b64:	00200000 	.word	0x00200000
  102b68:	001029b1 	.word	0x001029b1

00102b6c <__fp_unlock_all>:
  102b6c:	b508      	push	{r3, lr}
  102b6e:	4b04      	ldr	r3, [pc, #16]	; (102b80 <__fp_unlock_all+0x14>)
  102b70:	4904      	ldr	r1, [pc, #16]	; (102b84 <__fp_unlock_all+0x18>)
  102b72:	6818      	ldr	r0, [r3, #0]
  102b74:	f000 fb42 	bl	1031fc <_fwalk>
  102b78:	bc08      	pop	{r3}
  102b7a:	bc01      	pop	{r0}
  102b7c:	4700      	bx	r0
  102b7e:	46c0      	nop			; (mov r8, r8)
  102b80:	00200000 	.word	0x00200000
  102b84:	001029b5 	.word	0x001029b5

00102b88 <_fputwc_r>:
  102b88:	b5f0      	push	{r4, r5, r6, r7, lr}
  102b8a:	464f      	mov	r7, r9
  102b8c:	4646      	mov	r6, r8
  102b8e:	b4c0      	push	{r6, r7}
  102b90:	1c14      	adds	r4, r2, #0
  102b92:	2380      	movs	r3, #128	; 0x80
  102b94:	8992      	ldrh	r2, [r2, #12]
  102b96:	019b      	lsls	r3, r3, #6
  102b98:	b083      	sub	sp, #12
  102b9a:	4681      	mov	r9, r0
  102b9c:	4688      	mov	r8, r1
  102b9e:	421a      	tst	r2, r3
  102ba0:	d104      	bne.n	102bac <_fputwc_r+0x24>
  102ba2:	431a      	orrs	r2, r3
  102ba4:	81a2      	strh	r2, [r4, #12]
  102ba6:	6e62      	ldr	r2, [r4, #100]	; 0x64
  102ba8:	4313      	orrs	r3, r2
  102baa:	6663      	str	r3, [r4, #100]	; 0x64
  102bac:	f000 fbb2 	bl	103314 <__locale_mb_cur_max>
  102bb0:	2801      	cmp	r0, #1
  102bb2:	d044      	beq.n	102c3e <_fputwc_r+0xb6>
  102bb4:	af01      	add	r7, sp, #4
  102bb6:	1c23      	adds	r3, r4, #0
  102bb8:	335c      	adds	r3, #92	; 0x5c
  102bba:	4648      	mov	r0, r9
  102bbc:	1c39      	adds	r1, r7, #0
  102bbe:	4642      	mov	r2, r8
  102bc0:	f001 fad2 	bl	104168 <_wcrtomb_r>
  102bc4:	1c06      	adds	r6, r0, #0
  102bc6:	1c43      	adds	r3, r0, #1
  102bc8:	d023      	beq.n	102c12 <_fputwc_r+0x8a>
  102bca:	2800      	cmp	r0, #0
  102bcc:	d02c      	beq.n	102c28 <_fputwc_r+0xa0>
  102bce:	2500      	movs	r5, #0
  102bd0:	e008      	b.n	102be4 <_fputwc_r+0x5c>
  102bd2:	6823      	ldr	r3, [r4, #0]
  102bd4:	5d7a      	ldrb	r2, [r7, r5]
  102bd6:	701a      	strb	r2, [r3, #0]
  102bd8:	6823      	ldr	r3, [r4, #0]
  102bda:	3301      	adds	r3, #1
  102bdc:	6023      	str	r3, [r4, #0]
  102bde:	3501      	adds	r5, #1
  102be0:	42b5      	cmp	r5, r6
  102be2:	d221      	bcs.n	102c28 <_fputwc_r+0xa0>
  102be4:	68a3      	ldr	r3, [r4, #8]
  102be6:	3b01      	subs	r3, #1
  102be8:	60a3      	str	r3, [r4, #8]
  102bea:	2b00      	cmp	r3, #0
  102bec:	daf1      	bge.n	102bd2 <_fputwc_r+0x4a>
  102bee:	69a2      	ldr	r2, [r4, #24]
  102bf0:	4293      	cmp	r3, r2
  102bf2:	db1b      	blt.n	102c2c <_fputwc_r+0xa4>
  102bf4:	6823      	ldr	r3, [r4, #0]
  102bf6:	5d7a      	ldrb	r2, [r7, r5]
  102bf8:	701a      	strb	r2, [r3, #0]
  102bfa:	6823      	ldr	r3, [r4, #0]
  102bfc:	781a      	ldrb	r2, [r3, #0]
  102bfe:	2a0a      	cmp	r2, #10
  102c00:	d026      	beq.n	102c50 <_fputwc_r+0xc8>
  102c02:	3301      	adds	r3, #1
  102c04:	6023      	str	r3, [r4, #0]
  102c06:	2200      	movs	r2, #0
  102c08:	2a00      	cmp	r2, #0
  102c0a:	d0e8      	beq.n	102bde <_fputwc_r+0x56>
  102c0c:	2001      	movs	r0, #1
  102c0e:	4240      	negs	r0, r0
  102c10:	e003      	b.n	102c1a <_fputwc_r+0x92>
  102c12:	89a2      	ldrh	r2, [r4, #12]
  102c14:	2340      	movs	r3, #64	; 0x40
  102c16:	4313      	orrs	r3, r2
  102c18:	81a3      	strh	r3, [r4, #12]
  102c1a:	b003      	add	sp, #12
  102c1c:	bc0c      	pop	{r2, r3}
  102c1e:	4690      	mov	r8, r2
  102c20:	4699      	mov	r9, r3
  102c22:	bcf0      	pop	{r4, r5, r6, r7}
  102c24:	bc02      	pop	{r1}
  102c26:	4708      	bx	r1
  102c28:	4640      	mov	r0, r8
  102c2a:	e7f6      	b.n	102c1a <_fputwc_r+0x92>
  102c2c:	1c22      	adds	r2, r4, #0
  102c2e:	5d79      	ldrb	r1, [r7, r5]
  102c30:	4648      	mov	r0, r9
  102c32:	f001 fa27 	bl	104084 <__swbuf_r>
  102c36:	1c42      	adds	r2, r0, #1
  102c38:	4253      	negs	r3, r2
  102c3a:	415a      	adcs	r2, r3
  102c3c:	e7e4      	b.n	102c08 <_fputwc_r+0x80>
  102c3e:	4643      	mov	r3, r8
  102c40:	2bff      	cmp	r3, #255	; 0xff
  102c42:	d8b7      	bhi.n	102bb4 <_fputwc_r+0x2c>
  102c44:	2b00      	cmp	r3, #0
  102c46:	d0b5      	beq.n	102bb4 <_fputwc_r+0x2c>
  102c48:	af01      	add	r7, sp, #4
  102c4a:	703b      	strb	r3, [r7, #0]
  102c4c:	2601      	movs	r6, #1
  102c4e:	e7be      	b.n	102bce <_fputwc_r+0x46>
  102c50:	1c22      	adds	r2, r4, #0
  102c52:	4648      	mov	r0, r9
  102c54:	210a      	movs	r1, #10
  102c56:	f001 fa15 	bl	104084 <__swbuf_r>
  102c5a:	1c42      	adds	r2, r0, #1
  102c5c:	4253      	negs	r3, r2
  102c5e:	415a      	adcs	r2, r3
  102c60:	e7d2      	b.n	102c08 <_fputwc_r+0x80>
  102c62:	46c0      	nop			; (mov r8, r8)

00102c64 <fputwc>:
  102c64:	b570      	push	{r4, r5, r6, lr}
  102c66:	4c09      	ldr	r4, [pc, #36]	; (102c8c <fputwc+0x28>)
  102c68:	1c06      	adds	r6, r0, #0
  102c6a:	6820      	ldr	r0, [r4, #0]
  102c6c:	1c0d      	adds	r5, r1, #0
  102c6e:	2800      	cmp	r0, #0
  102c70:	d005      	beq.n	102c7e <fputwc+0x1a>
  102c72:	6b83      	ldr	r3, [r0, #56]	; 0x38
  102c74:	2b00      	cmp	r3, #0
  102c76:	d102      	bne.n	102c7e <fputwc+0x1a>
  102c78:	f7ff fef0 	bl	102a5c <__sinit>
  102c7c:	6820      	ldr	r0, [r4, #0]
  102c7e:	1c31      	adds	r1, r6, #0
  102c80:	1c2a      	adds	r2, r5, #0
  102c82:	f7ff ff81 	bl	102b88 <_fputwc_r>
  102c86:	bc70      	pop	{r4, r5, r6}
  102c88:	bc02      	pop	{r1}
  102c8a:	4708      	bx	r1
  102c8c:	00200000 	.word	0x00200000

00102c90 <_malloc_trim_r>:
  102c90:	b5f8      	push	{r3, r4, r5, r6, r7, lr}
  102c92:	1c04      	adds	r4, r0, #0
  102c94:	1c0f      	adds	r7, r1, #0
  102c96:	f000 ffa7 	bl	103be8 <__malloc_lock>
  102c9a:	4d23      	ldr	r5, [pc, #140]	; (102d28 <_malloc_trim_r+0x98>)
  102c9c:	68ab      	ldr	r3, [r5, #8]
  102c9e:	685e      	ldr	r6, [r3, #4]
  102ca0:	4a22      	ldr	r2, [pc, #136]	; (102d2c <_malloc_trim_r+0x9c>)
  102ca2:	2303      	movs	r3, #3
  102ca4:	439e      	bics	r6, r3
  102ca6:	18b3      	adds	r3, r6, r2
  102ca8:	1bdf      	subs	r7, r3, r7
  102caa:	0b3f      	lsrs	r7, r7, #12
  102cac:	4b20      	ldr	r3, [pc, #128]	; (102d30 <_malloc_trim_r+0xa0>)
  102cae:	3f01      	subs	r7, #1
  102cb0:	033f      	lsls	r7, r7, #12
  102cb2:	1c20      	adds	r0, r4, #0
  102cb4:	429f      	cmp	r7, r3
  102cb6:	dd07      	ble.n	102cc8 <_malloc_trim_r+0x38>
  102cb8:	2100      	movs	r1, #0
  102cba:	f7fd fa5b 	bl	100174 <_sbrk_r>
  102cbe:	68ab      	ldr	r3, [r5, #8]
  102cc0:	199b      	adds	r3, r3, r6
  102cc2:	4298      	cmp	r0, r3
  102cc4:	d006      	beq.n	102cd4 <_malloc_trim_r+0x44>
  102cc6:	1c20      	adds	r0, r4, #0
  102cc8:	f000 ff90 	bl	103bec <__malloc_unlock>
  102ccc:	2000      	movs	r0, #0
  102cce:	bcf8      	pop	{r3, r4, r5, r6, r7}
  102cd0:	bc02      	pop	{r1}
  102cd2:	4708      	bx	r1
  102cd4:	4279      	negs	r1, r7
  102cd6:	1c20      	adds	r0, r4, #0
  102cd8:	f7fd fa4c 	bl	100174 <_sbrk_r>
  102cdc:	3001      	adds	r0, #1
  102cde:	d00d      	beq.n	102cfc <_malloc_trim_r+0x6c>
  102ce0:	68ab      	ldr	r3, [r5, #8]
  102ce2:	1bf6      	subs	r6, r6, r7
  102ce4:	2201      	movs	r2, #1
  102ce6:	4316      	orrs	r6, r2
  102ce8:	605e      	str	r6, [r3, #4]
  102cea:	4b12      	ldr	r3, [pc, #72]	; (102d34 <_malloc_trim_r+0xa4>)
  102cec:	681a      	ldr	r2, [r3, #0]
  102cee:	1bd7      	subs	r7, r2, r7
  102cf0:	1c20      	adds	r0, r4, #0
  102cf2:	601f      	str	r7, [r3, #0]
  102cf4:	f000 ff7a 	bl	103bec <__malloc_unlock>
  102cf8:	2001      	movs	r0, #1
  102cfa:	e7e8      	b.n	102cce <_malloc_trim_r+0x3e>
  102cfc:	1c20      	adds	r0, r4, #0
  102cfe:	2100      	movs	r1, #0
  102d00:	f7fd fa38 	bl	100174 <_sbrk_r>
  102d04:	68ab      	ldr	r3, [r5, #8]
  102d06:	1ac2      	subs	r2, r0, r3
  102d08:	2a0f      	cmp	r2, #15
  102d0a:	dd07      	ble.n	102d1c <_malloc_trim_r+0x8c>
  102d0c:	490a      	ldr	r1, [pc, #40]	; (102d38 <_malloc_trim_r+0xa8>)
  102d0e:	6809      	ldr	r1, [r1, #0]
  102d10:	1a40      	subs	r0, r0, r1
  102d12:	4908      	ldr	r1, [pc, #32]	; (102d34 <_malloc_trim_r+0xa4>)
  102d14:	6008      	str	r0, [r1, #0]
  102d16:	2101      	movs	r1, #1
  102d18:	430a      	orrs	r2, r1
  102d1a:	605a      	str	r2, [r3, #4]
  102d1c:	1c20      	adds	r0, r4, #0
  102d1e:	f000 ff65 	bl	103bec <__malloc_unlock>
  102d22:	2000      	movs	r0, #0
  102d24:	e7d3      	b.n	102cce <_malloc_trim_r+0x3e>
  102d26:	46c0      	nop			; (mov r8, r8)
  102d28:	002004ac 	.word	0x002004ac
  102d2c:	00000fef 	.word	0x00000fef
  102d30:	00000fff 	.word	0x00000fff
  102d34:	00200958 	.word	0x00200958
  102d38:	002008b4 	.word	0x002008b4

00102d3c <_free_r>:
  102d3c:	b5f0      	push	{r4, r5, r6, r7, lr}
  102d3e:	4647      	mov	r7, r8
  102d40:	b480      	push	{r7}
  102d42:	1c05      	adds	r5, r0, #0
  102d44:	1e0c      	subs	r4, r1, #0
  102d46:	d05f      	beq.n	102e08 <_free_r+0xcc>
  102d48:	3c08      	subs	r4, #8
  102d4a:	f000 ff4d 	bl	103be8 <__malloc_lock>
  102d4e:	6860      	ldr	r0, [r4, #4]
  102d50:	2701      	movs	r7, #1
  102d52:	1c03      	adds	r3, r0, #0
  102d54:	43bb      	bics	r3, r7
  102d56:	18e2      	adds	r2, r4, r3
  102d58:	4680      	mov	r8, r0
  102d5a:	6850      	ldr	r0, [r2, #4]
  102d5c:	2103      	movs	r1, #3
  102d5e:	4388      	bics	r0, r1
  102d60:	4957      	ldr	r1, [pc, #348]	; (102ec0 <_free_r+0x184>)
  102d62:	688e      	ldr	r6, [r1, #8]
  102d64:	4296      	cmp	r6, r2
  102d66:	d062      	beq.n	102e2e <_free_r+0xf2>
  102d68:	2600      	movs	r6, #0
  102d6a:	46b4      	mov	ip, r6
  102d6c:	4646      	mov	r6, r8
  102d6e:	6050      	str	r0, [r2, #4]
  102d70:	4237      	tst	r7, r6
  102d72:	d10f      	bne.n	102d94 <_free_r+0x58>
  102d74:	6826      	ldr	r6, [r4, #0]
  102d76:	2708      	movs	r7, #8
  102d78:	1ba4      	subs	r4, r4, r6
  102d7a:	187f      	adds	r7, r7, r1
  102d7c:	199b      	adds	r3, r3, r6
  102d7e:	68a6      	ldr	r6, [r4, #8]
  102d80:	46b8      	mov	r8, r7
  102d82:	2701      	movs	r7, #1
  102d84:	46bc      	mov	ip, r7
  102d86:	4546      	cmp	r6, r8
  102d88:	d004      	beq.n	102d94 <_free_r+0x58>
  102d8a:	68e7      	ldr	r7, [r4, #12]
  102d8c:	60f7      	str	r7, [r6, #12]
  102d8e:	60be      	str	r6, [r7, #8]
  102d90:	2600      	movs	r6, #0
  102d92:	46b4      	mov	ip, r6
  102d94:	1817      	adds	r7, r2, r0
  102d96:	687f      	ldr	r7, [r7, #4]
  102d98:	2601      	movs	r6, #1
  102d9a:	4237      	tst	r7, r6
  102d9c:	d10a      	bne.n	102db4 <_free_r+0x78>
  102d9e:	4667      	mov	r7, ip
  102da0:	181b      	adds	r3, r3, r0
  102da2:	6890      	ldr	r0, [r2, #8]
  102da4:	2f00      	cmp	r7, #0
  102da6:	d102      	bne.n	102dae <_free_r+0x72>
  102da8:	4f46      	ldr	r7, [pc, #280]	; (102ec4 <_free_r+0x188>)
  102daa:	42b8      	cmp	r0, r7
  102dac:	d058      	beq.n	102e60 <_free_r+0x124>
  102dae:	68d2      	ldr	r2, [r2, #12]
  102db0:	60c2      	str	r2, [r0, #12]
  102db2:	6090      	str	r0, [r2, #8]
  102db4:	2201      	movs	r2, #1
  102db6:	1c18      	adds	r0, r3, #0
  102db8:	4310      	orrs	r0, r2
  102dba:	6060      	str	r0, [r4, #4]
  102dbc:	4660      	mov	r0, ip
  102dbe:	50e3      	str	r3, [r4, r3]
  102dc0:	2800      	cmp	r0, #0
  102dc2:	d11e      	bne.n	102e02 <_free_r+0xc6>
  102dc4:	4840      	ldr	r0, [pc, #256]	; (102ec8 <_free_r+0x18c>)
  102dc6:	4283      	cmp	r3, r0
  102dc8:	d923      	bls.n	102e12 <_free_r+0xd6>
  102dca:	0a5a      	lsrs	r2, r3, #9
  102dcc:	2a04      	cmp	r2, #4
  102dce:	d84f      	bhi.n	102e70 <_free_r+0x134>
  102dd0:	099e      	lsrs	r6, r3, #6
  102dd2:	3638      	adds	r6, #56	; 0x38
  102dd4:	00f0      	lsls	r0, r6, #3
  102dd6:	1808      	adds	r0, r1, r0
  102dd8:	6882      	ldr	r2, [r0, #8]
  102dda:	4282      	cmp	r2, r0
  102ddc:	d04e      	beq.n	102e7c <_free_r+0x140>
  102dde:	6851      	ldr	r1, [r2, #4]
  102de0:	2603      	movs	r6, #3
  102de2:	43b1      	bics	r1, r6
  102de4:	428b      	cmp	r3, r1
  102de6:	d304      	bcc.n	102df2 <_free_r+0xb6>
  102de8:	e006      	b.n	102df8 <_free_r+0xbc>
  102dea:	6851      	ldr	r1, [r2, #4]
  102dec:	43b1      	bics	r1, r6
  102dee:	428b      	cmp	r3, r1
  102df0:	d202      	bcs.n	102df8 <_free_r+0xbc>
  102df2:	6892      	ldr	r2, [r2, #8]
  102df4:	4290      	cmp	r0, r2
  102df6:	d1f8      	bne.n	102dea <_free_r+0xae>
  102df8:	68d3      	ldr	r3, [r2, #12]
  102dfa:	60e3      	str	r3, [r4, #12]
  102dfc:	60a2      	str	r2, [r4, #8]
  102dfe:	60d4      	str	r4, [r2, #12]
  102e00:	609c      	str	r4, [r3, #8]
  102e02:	1c28      	adds	r0, r5, #0
  102e04:	f000 fef2 	bl	103bec <__malloc_unlock>
  102e08:	bc04      	pop	{r2}
  102e0a:	4690      	mov	r8, r2
  102e0c:	bcf0      	pop	{r4, r5, r6, r7}
  102e0e:	bc01      	pop	{r0}
  102e10:	4700      	bx	r0
  102e12:	08db      	lsrs	r3, r3, #3
  102e14:	1098      	asrs	r0, r3, #2
  102e16:	4082      	lsls	r2, r0
  102e18:	6848      	ldr	r0, [r1, #4]
  102e1a:	00db      	lsls	r3, r3, #3
  102e1c:	4302      	orrs	r2, r0
  102e1e:	604a      	str	r2, [r1, #4]
  102e20:	18c9      	adds	r1, r1, r3
  102e22:	688b      	ldr	r3, [r1, #8]
  102e24:	60e1      	str	r1, [r4, #12]
  102e26:	60a3      	str	r3, [r4, #8]
  102e28:	60dc      	str	r4, [r3, #12]
  102e2a:	608c      	str	r4, [r1, #8]
  102e2c:	e7e9      	b.n	102e02 <_free_r+0xc6>
  102e2e:	18c3      	adds	r3, r0, r3
  102e30:	4640      	mov	r0, r8
  102e32:	4207      	tst	r7, r0
  102e34:	d106      	bne.n	102e44 <_free_r+0x108>
  102e36:	6822      	ldr	r2, [r4, #0]
  102e38:	1aa4      	subs	r4, r4, r2
  102e3a:	68a0      	ldr	r0, [r4, #8]
  102e3c:	189b      	adds	r3, r3, r2
  102e3e:	68e2      	ldr	r2, [r4, #12]
  102e40:	60c2      	str	r2, [r0, #12]
  102e42:	6090      	str	r0, [r2, #8]
  102e44:	2201      	movs	r2, #1
  102e46:	431a      	orrs	r2, r3
  102e48:	6062      	str	r2, [r4, #4]
  102e4a:	4a20      	ldr	r2, [pc, #128]	; (102ecc <_free_r+0x190>)
  102e4c:	6812      	ldr	r2, [r2, #0]
  102e4e:	608c      	str	r4, [r1, #8]
  102e50:	4293      	cmp	r3, r2
  102e52:	d3d6      	bcc.n	102e02 <_free_r+0xc6>
  102e54:	4b1e      	ldr	r3, [pc, #120]	; (102ed0 <_free_r+0x194>)
  102e56:	1c28      	adds	r0, r5, #0
  102e58:	6819      	ldr	r1, [r3, #0]
  102e5a:	f7ff ff19 	bl	102c90 <_malloc_trim_r>
  102e5e:	e7d0      	b.n	102e02 <_free_r+0xc6>
  102e60:	431e      	orrs	r6, r3
  102e62:	60c4      	str	r4, [r0, #12]
  102e64:	6084      	str	r4, [r0, #8]
  102e66:	60e0      	str	r0, [r4, #12]
  102e68:	60a0      	str	r0, [r4, #8]
  102e6a:	6066      	str	r6, [r4, #4]
  102e6c:	50e3      	str	r3, [r4, r3]
  102e6e:	e7c8      	b.n	102e02 <_free_r+0xc6>
  102e70:	2a14      	cmp	r2, #20
  102e72:	d80c      	bhi.n	102e8e <_free_r+0x152>
  102e74:	1c16      	adds	r6, r2, #0
  102e76:	365b      	adds	r6, #91	; 0x5b
  102e78:	00f0      	lsls	r0, r6, #3
  102e7a:	e7ac      	b.n	102dd6 <_free_r+0x9a>
  102e7c:	10b6      	asrs	r6, r6, #2
  102e7e:	2301      	movs	r3, #1
  102e80:	40b3      	lsls	r3, r6
  102e82:	1c1e      	adds	r6, r3, #0
  102e84:	684b      	ldr	r3, [r1, #4]
  102e86:	431e      	orrs	r6, r3
  102e88:	604e      	str	r6, [r1, #4]
  102e8a:	1c13      	adds	r3, r2, #0
  102e8c:	e7b5      	b.n	102dfa <_free_r+0xbe>
  102e8e:	2a54      	cmp	r2, #84	; 0x54
  102e90:	d803      	bhi.n	102e9a <_free_r+0x15e>
  102e92:	0b1e      	lsrs	r6, r3, #12
  102e94:	366e      	adds	r6, #110	; 0x6e
  102e96:	00f0      	lsls	r0, r6, #3
  102e98:	e79d      	b.n	102dd6 <_free_r+0x9a>
  102e9a:	20aa      	movs	r0, #170	; 0xaa
  102e9c:	0040      	lsls	r0, r0, #1
  102e9e:	4282      	cmp	r2, r0
  102ea0:	d803      	bhi.n	102eaa <_free_r+0x16e>
  102ea2:	0bde      	lsrs	r6, r3, #15
  102ea4:	3677      	adds	r6, #119	; 0x77
  102ea6:	00f0      	lsls	r0, r6, #3
  102ea8:	e795      	b.n	102dd6 <_free_r+0x9a>
  102eaa:	480a      	ldr	r0, [pc, #40]	; (102ed4 <_free_r+0x198>)
  102eac:	4282      	cmp	r2, r0
  102eae:	d803      	bhi.n	102eb8 <_free_r+0x17c>
  102eb0:	0c9e      	lsrs	r6, r3, #18
  102eb2:	367c      	adds	r6, #124	; 0x7c
  102eb4:	00f0      	lsls	r0, r6, #3
  102eb6:	e78e      	b.n	102dd6 <_free_r+0x9a>
  102eb8:	20fc      	movs	r0, #252	; 0xfc
  102eba:	0080      	lsls	r0, r0, #2
  102ebc:	267e      	movs	r6, #126	; 0x7e
  102ebe:	e78a      	b.n	102dd6 <_free_r+0x9a>
  102ec0:	002004ac 	.word	0x002004ac
  102ec4:	002004b4 	.word	0x002004b4
  102ec8:	000001ff 	.word	0x000001ff
  102ecc:	002008b8 	.word	0x002008b8
  102ed0:	00200954 	.word	0x00200954
  102ed4:	00000554 	.word	0x00000554

00102ed8 <__sfvwrite_r>:
  102ed8:	b5f0      	push	{r4, r5, r6, r7, lr}
  102eda:	465f      	mov	r7, fp
  102edc:	4656      	mov	r6, sl
  102ede:	464d      	mov	r5, r9
  102ee0:	4644      	mov	r4, r8
  102ee2:	b4f0      	push	{r4, r5, r6, r7}
  102ee4:	6893      	ldr	r3, [r2, #8]
  102ee6:	b083      	sub	sp, #12
  102ee8:	9001      	str	r0, [sp, #4]
  102eea:	1c0c      	adds	r4, r1, #0
  102eec:	1c16      	adds	r6, r2, #0
  102eee:	2000      	movs	r0, #0
  102ef0:	2b00      	cmp	r3, #0
  102ef2:	d025      	beq.n	102f40 <__sfvwrite_r+0x68>
  102ef4:	898b      	ldrh	r3, [r1, #12]
  102ef6:	0718      	lsls	r0, r3, #28
  102ef8:	d52b      	bpl.n	102f52 <__sfvwrite_r+0x7a>
  102efa:	690a      	ldr	r2, [r1, #16]
  102efc:	2a00      	cmp	r2, #0
  102efe:	d028      	beq.n	102f52 <__sfvwrite_r+0x7a>
  102f00:	6835      	ldr	r5, [r6, #0]
  102f02:	079a      	lsls	r2, r3, #30
  102f04:	d530      	bpl.n	102f68 <__sfvwrite_r+0x90>
  102f06:	2380      	movs	r3, #128	; 0x80
  102f08:	2000      	movs	r0, #0
  102f0a:	00db      	lsls	r3, r3, #3
  102f0c:	2700      	movs	r7, #0
  102f0e:	4699      	mov	r9, r3
  102f10:	4682      	mov	sl, r0
  102f12:	46b0      	mov	r8, r6
  102f14:	2f00      	cmp	r7, #0
  102f16:	d060      	beq.n	102fda <__sfvwrite_r+0x102>
  102f18:	69e1      	ldr	r1, [r4, #28]
  102f1a:	1c3b      	adds	r3, r7, #0
  102f1c:	454f      	cmp	r7, r9
  102f1e:	d901      	bls.n	102f24 <__sfvwrite_r+0x4c>
  102f20:	2380      	movs	r3, #128	; 0x80
  102f22:	00db      	lsls	r3, r3, #3
  102f24:	6a66      	ldr	r6, [r4, #36]	; 0x24
  102f26:	9801      	ldr	r0, [sp, #4]
  102f28:	4652      	mov	r2, sl
  102f2a:	f000 f965 	bl	1031f8 <__sfvwrite_r+0x320>
  102f2e:	2800      	cmp	r0, #0
  102f30:	dd5b      	ble.n	102fea <__sfvwrite_r+0x112>
  102f32:	4641      	mov	r1, r8
  102f34:	688b      	ldr	r3, [r1, #8]
  102f36:	4482      	add	sl, r0
  102f38:	1a3f      	subs	r7, r7, r0
  102f3a:	1a18      	subs	r0, r3, r0
  102f3c:	6088      	str	r0, [r1, #8]
  102f3e:	d1e9      	bne.n	102f14 <__sfvwrite_r+0x3c>
  102f40:	b003      	add	sp, #12
  102f42:	bc3c      	pop	{r2, r3, r4, r5}
  102f44:	4690      	mov	r8, r2
  102f46:	4699      	mov	r9, r3
  102f48:	46a2      	mov	sl, r4
  102f4a:	46ab      	mov	fp, r5
  102f4c:	bcf0      	pop	{r4, r5, r6, r7}
  102f4e:	bc02      	pop	{r1}
  102f50:	4708      	bx	r1
  102f52:	9801      	ldr	r0, [sp, #4]
  102f54:	1c21      	adds	r1, r4, #0
  102f56:	f7ff fc07 	bl	102768 <__swsetup_r>
  102f5a:	2800      	cmp	r0, #0
  102f5c:	d000      	beq.n	102f60 <__sfvwrite_r+0x88>
  102f5e:	e13f      	b.n	1031e0 <__sfvwrite_r+0x308>
  102f60:	89a3      	ldrh	r3, [r4, #12]
  102f62:	6835      	ldr	r5, [r6, #0]
  102f64:	079a      	lsls	r2, r3, #30
  102f66:	d4ce      	bmi.n	102f06 <__sfvwrite_r+0x2e>
  102f68:	07da      	lsls	r2, r3, #31
  102f6a:	d545      	bpl.n	102ff8 <__sfvwrite_r+0x120>
  102f6c:	2000      	movs	r0, #0
  102f6e:	2300      	movs	r3, #0
  102f70:	4683      	mov	fp, r0
  102f72:	9000      	str	r0, [sp, #0]
  102f74:	4699      	mov	r9, r3
  102f76:	465f      	mov	r7, fp
  102f78:	2f00      	cmp	r7, #0
  102f7a:	d06b      	beq.n	103054 <__sfvwrite_r+0x17c>
  102f7c:	9900      	ldr	r1, [sp, #0]
  102f7e:	2900      	cmp	r1, #0
  102f80:	d100      	bne.n	102f84 <__sfvwrite_r+0xac>
  102f82:	e0a4      	b.n	1030ce <__sfvwrite_r+0x1f6>
  102f84:	46ca      	mov	sl, r9
  102f86:	45b9      	cmp	r9, r7
  102f88:	d900      	bls.n	102f8c <__sfvwrite_r+0xb4>
  102f8a:	46ba      	mov	sl, r7
  102f8c:	6963      	ldr	r3, [r4, #20]
  102f8e:	68a2      	ldr	r2, [r4, #8]
  102f90:	18d2      	adds	r2, r2, r3
  102f92:	4690      	mov	r8, r2
  102f94:	6820      	ldr	r0, [r4, #0]
  102f96:	2201      	movs	r2, #1
  102f98:	45c2      	cmp	sl, r8
  102f9a:	dc00      	bgt.n	102f9e <__sfvwrite_r+0xc6>
  102f9c:	2200      	movs	r2, #0
  102f9e:	0612      	lsls	r2, r2, #24
  102fa0:	d000      	beq.n	102fa4 <__sfvwrite_r+0xcc>
  102fa2:	e0a2      	b.n	1030ea <__sfvwrite_r+0x212>
  102fa4:	459a      	cmp	sl, r3
  102fa6:	db78      	blt.n	10309a <__sfvwrite_r+0x1c2>
  102fa8:	6a62      	ldr	r2, [r4, #36]	; 0x24
  102faa:	69e1      	ldr	r1, [r4, #28]
  102fac:	4694      	mov	ip, r2
  102fae:	9801      	ldr	r0, [sp, #4]
  102fb0:	465a      	mov	r2, fp
  102fb2:	f000 f922 	bl	1031fa <__sfvwrite_r+0x322>
  102fb6:	4680      	mov	r8, r0
  102fb8:	2800      	cmp	r0, #0
  102fba:	dd16      	ble.n	102fea <__sfvwrite_r+0x112>
  102fbc:	4649      	mov	r1, r9
  102fbe:	4642      	mov	r2, r8
  102fc0:	1a89      	subs	r1, r1, r2
  102fc2:	4689      	mov	r9, r1
  102fc4:	d07a      	beq.n	1030bc <__sfvwrite_r+0x1e4>
  102fc6:	68b3      	ldr	r3, [r6, #8]
  102fc8:	4640      	mov	r0, r8
  102fca:	1a1b      	subs	r3, r3, r0
  102fcc:	44c3      	add	fp, r8
  102fce:	1a3f      	subs	r7, r7, r0
  102fd0:	60b3      	str	r3, [r6, #8]
  102fd2:	2b00      	cmp	r3, #0
  102fd4:	d1d0      	bne.n	102f78 <__sfvwrite_r+0xa0>
  102fd6:	2000      	movs	r0, #0
  102fd8:	e7b2      	b.n	102f40 <__sfvwrite_r+0x68>
  102fda:	682b      	ldr	r3, [r5, #0]
  102fdc:	686f      	ldr	r7, [r5, #4]
  102fde:	469a      	mov	sl, r3
  102fe0:	3508      	adds	r5, #8
  102fe2:	e797      	b.n	102f14 <__sfvwrite_r+0x3c>
  102fe4:	9901      	ldr	r1, [sp, #4]
  102fe6:	230c      	movs	r3, #12
  102fe8:	600b      	str	r3, [r1, #0]
  102fea:	89a2      	ldrh	r2, [r4, #12]
  102fec:	2340      	movs	r3, #64	; 0x40
  102fee:	4313      	orrs	r3, r2
  102ff0:	2001      	movs	r0, #1
  102ff2:	81a3      	strh	r3, [r4, #12]
  102ff4:	4240      	negs	r0, r0
  102ff6:	e7a3      	b.n	102f40 <__sfvwrite_r+0x68>
  102ff8:	2100      	movs	r1, #0
  102ffa:	4689      	mov	r9, r1
  102ffc:	2700      	movs	r7, #0
  102ffe:	2f00      	cmp	r7, #0
  103000:	d023      	beq.n	10304a <__sfvwrite_r+0x172>
  103002:	68a2      	ldr	r2, [r4, #8]
  103004:	2080      	movs	r0, #128	; 0x80
  103006:	0080      	lsls	r0, r0, #2
  103008:	4690      	mov	r8, r2
  10300a:	4203      	tst	r3, r0
  10300c:	d029      	beq.n	103062 <__sfvwrite_r+0x18a>
  10300e:	4693      	mov	fp, r2
  103010:	4297      	cmp	r7, r2
  103012:	d239      	bcs.n	103088 <__sfvwrite_r+0x1b0>
  103014:	9700      	str	r7, [sp, #0]
  103016:	6820      	ldr	r0, [r4, #0]
  103018:	46bb      	mov	fp, r7
  10301a:	46ba      	mov	sl, r7
  10301c:	46b8      	mov	r8, r7
  10301e:	465a      	mov	r2, fp
  103020:	4649      	mov	r1, r9
  103022:	f000 fd41 	bl	103aa8 <memmove>
  103026:	68a3      	ldr	r3, [r4, #8]
  103028:	9a00      	ldr	r2, [sp, #0]
  10302a:	1a9b      	subs	r3, r3, r2
  10302c:	60a3      	str	r3, [r4, #8]
  10302e:	6823      	ldr	r3, [r4, #0]
  103030:	445b      	add	r3, fp
  103032:	6023      	str	r3, [r4, #0]
  103034:	68b3      	ldr	r3, [r6, #8]
  103036:	4641      	mov	r1, r8
  103038:	1a5b      	subs	r3, r3, r1
  10303a:	60b3      	str	r3, [r6, #8]
  10303c:	d0cb      	beq.n	102fd6 <__sfvwrite_r+0xfe>
  10303e:	4652      	mov	r2, sl
  103040:	44d1      	add	r9, sl
  103042:	1abf      	subs	r7, r7, r2
  103044:	89a3      	ldrh	r3, [r4, #12]
  103046:	2f00      	cmp	r7, #0
  103048:	d1db      	bne.n	103002 <__sfvwrite_r+0x12a>
  10304a:	6828      	ldr	r0, [r5, #0]
  10304c:	686f      	ldr	r7, [r5, #4]
  10304e:	4681      	mov	r9, r0
  103050:	3508      	adds	r5, #8
  103052:	e7d4      	b.n	102ffe <__sfvwrite_r+0x126>
  103054:	682b      	ldr	r3, [r5, #0]
  103056:	2000      	movs	r0, #0
  103058:	686f      	ldr	r7, [r5, #4]
  10305a:	469b      	mov	fp, r3
  10305c:	3508      	adds	r5, #8
  10305e:	9000      	str	r0, [sp, #0]
  103060:	e78a      	b.n	102f78 <__sfvwrite_r+0xa0>
  103062:	6820      	ldr	r0, [r4, #0]
  103064:	4692      	mov	sl, r2
  103066:	42ba      	cmp	r2, r7
  103068:	d35f      	bcc.n	10312a <__sfvwrite_r+0x252>
  10306a:	6963      	ldr	r3, [r4, #20]
  10306c:	429f      	cmp	r7, r3
  10306e:	d34f      	bcc.n	103110 <__sfvwrite_r+0x238>
  103070:	6a60      	ldr	r0, [r4, #36]	; 0x24
  103072:	69e1      	ldr	r1, [r4, #28]
  103074:	4684      	mov	ip, r0
  103076:	464a      	mov	r2, r9
  103078:	9801      	ldr	r0, [sp, #4]
  10307a:	f000 f8be 	bl	1031fa <__sfvwrite_r+0x322>
  10307e:	4680      	mov	r8, r0
  103080:	2800      	cmp	r0, #0
  103082:	ddb2      	ble.n	102fea <__sfvwrite_r+0x112>
  103084:	4682      	mov	sl, r0
  103086:	e7d5      	b.n	103034 <__sfvwrite_r+0x15c>
  103088:	2190      	movs	r1, #144	; 0x90
  10308a:	00c9      	lsls	r1, r1, #3
  10308c:	420b      	tst	r3, r1
  10308e:	d15d      	bne.n	10314c <__sfvwrite_r+0x274>
  103090:	6820      	ldr	r0, [r4, #0]
  103092:	46ba      	mov	sl, r7
  103094:	9200      	str	r2, [sp, #0]
  103096:	46b8      	mov	r8, r7
  103098:	e7c1      	b.n	10301e <__sfvwrite_r+0x146>
  10309a:	4659      	mov	r1, fp
  10309c:	4652      	mov	r2, sl
  10309e:	f000 fd03 	bl	103aa8 <memmove>
  1030a2:	68a3      	ldr	r3, [r4, #8]
  1030a4:	4650      	mov	r0, sl
  1030a6:	1a1b      	subs	r3, r3, r0
  1030a8:	60a3      	str	r3, [r4, #8]
  1030aa:	46d0      	mov	r8, sl
  1030ac:	6823      	ldr	r3, [r4, #0]
  1030ae:	4649      	mov	r1, r9
  1030b0:	4642      	mov	r2, r8
  1030b2:	4453      	add	r3, sl
  1030b4:	1a89      	subs	r1, r1, r2
  1030b6:	6023      	str	r3, [r4, #0]
  1030b8:	4689      	mov	r9, r1
  1030ba:	d184      	bne.n	102fc6 <__sfvwrite_r+0xee>
  1030bc:	9801      	ldr	r0, [sp, #4]
  1030be:	1c21      	adds	r1, r4, #0
  1030c0:	f7ff fbb0 	bl	102824 <_fflush_r>
  1030c4:	2800      	cmp	r0, #0
  1030c6:	d190      	bne.n	102fea <__sfvwrite_r+0x112>
  1030c8:	2300      	movs	r3, #0
  1030ca:	9300      	str	r3, [sp, #0]
  1030cc:	e77b      	b.n	102fc6 <__sfvwrite_r+0xee>
  1030ce:	4658      	mov	r0, fp
  1030d0:	210a      	movs	r1, #10
  1030d2:	1c3a      	adds	r2, r7, #0
  1030d4:	f000 fc5a 	bl	10398c <memchr>
  1030d8:	2800      	cmp	r0, #0
  1030da:	d07c      	beq.n	1031d6 <__sfvwrite_r+0x2fe>
  1030dc:	3001      	adds	r0, #1
  1030de:	465a      	mov	r2, fp
  1030e0:	1a82      	subs	r2, r0, r2
  1030e2:	2301      	movs	r3, #1
  1030e4:	4691      	mov	r9, r2
  1030e6:	9300      	str	r3, [sp, #0]
  1030e8:	e74c      	b.n	102f84 <__sfvwrite_r+0xac>
  1030ea:	6922      	ldr	r2, [r4, #16]
  1030ec:	4282      	cmp	r2, r0
  1030ee:	d300      	bcc.n	1030f2 <__sfvwrite_r+0x21a>
  1030f0:	e758      	b.n	102fa4 <__sfvwrite_r+0xcc>
  1030f2:	4659      	mov	r1, fp
  1030f4:	4642      	mov	r2, r8
  1030f6:	f000 fcd7 	bl	103aa8 <memmove>
  1030fa:	6823      	ldr	r3, [r4, #0]
  1030fc:	4443      	add	r3, r8
  1030fe:	6023      	str	r3, [r4, #0]
  103100:	9801      	ldr	r0, [sp, #4]
  103102:	1c21      	adds	r1, r4, #0
  103104:	f7ff fb8e 	bl	102824 <_fflush_r>
  103108:	2800      	cmp	r0, #0
  10310a:	d100      	bne.n	10310e <__sfvwrite_r+0x236>
  10310c:	e756      	b.n	102fbc <__sfvwrite_r+0xe4>
  10310e:	e76c      	b.n	102fea <__sfvwrite_r+0x112>
  103110:	4649      	mov	r1, r9
  103112:	1c3a      	adds	r2, r7, #0
  103114:	f000 fcc8 	bl	103aa8 <memmove>
  103118:	68a3      	ldr	r3, [r4, #8]
  10311a:	1bdb      	subs	r3, r3, r7
  10311c:	60a3      	str	r3, [r4, #8]
  10311e:	6823      	ldr	r3, [r4, #0]
  103120:	19db      	adds	r3, r3, r7
  103122:	46b8      	mov	r8, r7
  103124:	6023      	str	r3, [r4, #0]
  103126:	46ba      	mov	sl, r7
  103128:	e784      	b.n	103034 <__sfvwrite_r+0x15c>
  10312a:	6923      	ldr	r3, [r4, #16]
  10312c:	4283      	cmp	r3, r0
  10312e:	d29c      	bcs.n	10306a <__sfvwrite_r+0x192>
  103130:	4649      	mov	r1, r9
  103132:	f000 fcb9 	bl	103aa8 <memmove>
  103136:	6823      	ldr	r3, [r4, #0]
  103138:	4443      	add	r3, r8
  10313a:	6023      	str	r3, [r4, #0]
  10313c:	9801      	ldr	r0, [sp, #4]
  10313e:	1c21      	adds	r1, r4, #0
  103140:	f7ff fb70 	bl	102824 <_fflush_r>
  103144:	2800      	cmp	r0, #0
  103146:	d100      	bne.n	10314a <__sfvwrite_r+0x272>
  103148:	e774      	b.n	103034 <__sfvwrite_r+0x15c>
  10314a:	e74e      	b.n	102fea <__sfvwrite_r+0x112>
  10314c:	6921      	ldr	r1, [r4, #16]
  10314e:	6822      	ldr	r2, [r4, #0]
  103150:	1a52      	subs	r2, r2, r1
  103152:	4693      	mov	fp, r2
  103154:	6962      	ldr	r2, [r4, #20]
  103156:	0050      	lsls	r0, r2, #1
  103158:	1882      	adds	r2, r0, r2
  10315a:	0fd0      	lsrs	r0, r2, #31
  10315c:	1882      	adds	r2, r0, r2
  10315e:	4658      	mov	r0, fp
  103160:	3001      	adds	r0, #1
  103162:	1052      	asrs	r2, r2, #1
  103164:	19c0      	adds	r0, r0, r7
  103166:	4690      	mov	r8, r2
  103168:	4282      	cmp	r2, r0
  10316a:	d201      	bcs.n	103170 <__sfvwrite_r+0x298>
  10316c:	4680      	mov	r8, r0
  10316e:	1c02      	adds	r2, r0, #0
  103170:	2080      	movs	r0, #128	; 0x80
  103172:	00c0      	lsls	r0, r0, #3
  103174:	4203      	tst	r3, r0
  103176:	d020      	beq.n	1031ba <__sfvwrite_r+0x2e2>
  103178:	9801      	ldr	r0, [sp, #4]
  10317a:	1c11      	adds	r1, r2, #0
  10317c:	f000 f97c 	bl	103478 <_malloc_r>
  103180:	4682      	mov	sl, r0
  103182:	2800      	cmp	r0, #0
  103184:	d100      	bne.n	103188 <__sfvwrite_r+0x2b0>
  103186:	e72d      	b.n	102fe4 <__sfvwrite_r+0x10c>
  103188:	465a      	mov	r2, fp
  10318a:	6921      	ldr	r1, [r4, #16]
  10318c:	f000 fc4c 	bl	103a28 <memcpy>
  103190:	89a2      	ldrh	r2, [r4, #12]
  103192:	4b18      	ldr	r3, [pc, #96]	; (1031f4 <__sfvwrite_r+0x31c>)
  103194:	4013      	ands	r3, r2
  103196:	2280      	movs	r2, #128	; 0x80
  103198:	4313      	orrs	r3, r2
  10319a:	81a3      	strh	r3, [r4, #12]
  10319c:	4653      	mov	r3, sl
  10319e:	4642      	mov	r2, r8
  1031a0:	1c18      	adds	r0, r3, #0
  1031a2:	4659      	mov	r1, fp
  1031a4:	4458      	add	r0, fp
  1031a6:	6123      	str	r3, [r4, #16]
  1031a8:	1a53      	subs	r3, r2, r1
  1031aa:	6020      	str	r0, [r4, #0]
  1031ac:	6162      	str	r2, [r4, #20]
  1031ae:	9700      	str	r7, [sp, #0]
  1031b0:	60a3      	str	r3, [r4, #8]
  1031b2:	46bb      	mov	fp, r7
  1031b4:	46ba      	mov	sl, r7
  1031b6:	46b8      	mov	r8, r7
  1031b8:	e731      	b.n	10301e <__sfvwrite_r+0x146>
  1031ba:	9801      	ldr	r0, [sp, #4]
  1031bc:	f000 fd18 	bl	103bf0 <_realloc_r>
  1031c0:	4682      	mov	sl, r0
  1031c2:	2800      	cmp	r0, #0
  1031c4:	d1ea      	bne.n	10319c <__sfvwrite_r+0x2c4>
  1031c6:	6921      	ldr	r1, [r4, #16]
  1031c8:	9801      	ldr	r0, [sp, #4]
  1031ca:	f7ff fdb7 	bl	102d3c <_free_r>
  1031ce:	9a01      	ldr	r2, [sp, #4]
  1031d0:	230c      	movs	r3, #12
  1031d2:	6013      	str	r3, [r2, #0]
  1031d4:	e709      	b.n	102fea <__sfvwrite_r+0x112>
  1031d6:	1c78      	adds	r0, r7, #1
  1031d8:	2101      	movs	r1, #1
  1031da:	4681      	mov	r9, r0
  1031dc:	9100      	str	r1, [sp, #0]
  1031de:	e6d1      	b.n	102f84 <__sfvwrite_r+0xac>
  1031e0:	89a2      	ldrh	r2, [r4, #12]
  1031e2:	2340      	movs	r3, #64	; 0x40
  1031e4:	4313      	orrs	r3, r2
  1031e6:	9901      	ldr	r1, [sp, #4]
  1031e8:	81a3      	strh	r3, [r4, #12]
  1031ea:	2001      	movs	r0, #1
  1031ec:	2309      	movs	r3, #9
  1031ee:	600b      	str	r3, [r1, #0]
  1031f0:	4240      	negs	r0, r0
  1031f2:	e6a5      	b.n	102f40 <__sfvwrite_r+0x68>
  1031f4:	fffffb7f 	.word	0xfffffb7f
  1031f8:	4730      	bx	r6
  1031fa:	4760      	bx	ip

001031fc <_fwalk>:
  1031fc:	b5f0      	push	{r4, r5, r6, r7, lr}
  1031fe:	4647      	mov	r7, r8
  103200:	b480      	push	{r7}
  103202:	1c06      	adds	r6, r0, #0
  103204:	4688      	mov	r8, r1
  103206:	f7ff fc9b 	bl	102b40 <__sfp_lock_acquire>
  10320a:	22b8      	movs	r2, #184	; 0xb8
  10320c:	0092      	lsls	r2, r2, #2
  10320e:	18b6      	adds	r6, r6, r2
  103210:	2700      	movs	r7, #0
  103212:	2e00      	cmp	r6, #0
  103214:	d017      	beq.n	103246 <_fwalk+0x4a>
  103216:	6875      	ldr	r5, [r6, #4]
  103218:	68b4      	ldr	r4, [r6, #8]
  10321a:	3d01      	subs	r5, #1
  10321c:	d410      	bmi.n	103240 <_fwalk+0x44>
  10321e:	340c      	adds	r4, #12
  103220:	2200      	movs	r2, #0
  103222:	5ea3      	ldrsh	r3, [r4, r2]
  103224:	1c20      	adds	r0, r4, #0
  103226:	380c      	subs	r0, #12
  103228:	2b00      	cmp	r3, #0
  10322a:	d006      	beq.n	10323a <_fwalk+0x3e>
  10322c:	2202      	movs	r2, #2
  10322e:	5ea3      	ldrsh	r3, [r4, r2]
  103230:	3301      	adds	r3, #1
  103232:	d002      	beq.n	10323a <_fwalk+0x3e>
  103234:	f000 f841 	bl	1032ba <_fwalk_reent+0x62>
  103238:	4307      	orrs	r7, r0
  10323a:	3468      	adds	r4, #104	; 0x68
  10323c:	3d01      	subs	r5, #1
  10323e:	d2ef      	bcs.n	103220 <_fwalk+0x24>
  103240:	6836      	ldr	r6, [r6, #0]
  103242:	2e00      	cmp	r6, #0
  103244:	d1e7      	bne.n	103216 <_fwalk+0x1a>
  103246:	f7ff fc7d 	bl	102b44 <__sfp_lock_release>
  10324a:	1c38      	adds	r0, r7, #0
  10324c:	bc04      	pop	{r2}
  10324e:	4690      	mov	r8, r2
  103250:	bcf0      	pop	{r4, r5, r6, r7}
  103252:	bc02      	pop	{r1}
  103254:	4708      	bx	r1
  103256:	46c0      	nop			; (mov r8, r8)

00103258 <_fwalk_reent>:
  103258:	b5f8      	push	{r3, r4, r5, r6, r7, lr}
  10325a:	464f      	mov	r7, r9
  10325c:	4646      	mov	r6, r8
  10325e:	b4c0      	push	{r6, r7}
  103260:	4680      	mov	r8, r0
  103262:	4689      	mov	r9, r1
  103264:	f7ff fc6c 	bl	102b40 <__sfp_lock_acquire>
  103268:	22b8      	movs	r2, #184	; 0xb8
  10326a:	0092      	lsls	r2, r2, #2
  10326c:	1c16      	adds	r6, r2, #0
  10326e:	4446      	add	r6, r8
  103270:	2700      	movs	r7, #0
  103272:	2e00      	cmp	r6, #0
  103274:	d018      	beq.n	1032a8 <_fwalk_reent+0x50>
  103276:	6875      	ldr	r5, [r6, #4]
  103278:	68b4      	ldr	r4, [r6, #8]
  10327a:	3d01      	subs	r5, #1
  10327c:	d411      	bmi.n	1032a2 <_fwalk_reent+0x4a>
  10327e:	340c      	adds	r4, #12
  103280:	2200      	movs	r2, #0
  103282:	5ea3      	ldrsh	r3, [r4, r2]
  103284:	1c21      	adds	r1, r4, #0
  103286:	390c      	subs	r1, #12
  103288:	2b00      	cmp	r3, #0
  10328a:	d007      	beq.n	10329c <_fwalk_reent+0x44>
  10328c:	2202      	movs	r2, #2
  10328e:	5ea3      	ldrsh	r3, [r4, r2]
  103290:	3301      	adds	r3, #1
  103292:	d003      	beq.n	10329c <_fwalk_reent+0x44>
  103294:	4640      	mov	r0, r8
  103296:	f000 f811 	bl	1032bc <_fwalk_reent+0x64>
  10329a:	4307      	orrs	r7, r0
  10329c:	3468      	adds	r4, #104	; 0x68
  10329e:	3d01      	subs	r5, #1
  1032a0:	d2ee      	bcs.n	103280 <_fwalk_reent+0x28>
  1032a2:	6836      	ldr	r6, [r6, #0]
  1032a4:	2e00      	cmp	r6, #0
  1032a6:	d1e6      	bne.n	103276 <_fwalk_reent+0x1e>
  1032a8:	f7ff fc4c 	bl	102b44 <__sfp_lock_release>
  1032ac:	1c38      	adds	r0, r7, #0
  1032ae:	bc0c      	pop	{r2, r3}
  1032b0:	4690      	mov	r8, r2
  1032b2:	4699      	mov	r9, r3
  1032b4:	bcf8      	pop	{r3, r4, r5, r6, r7}
  1032b6:	bc02      	pop	{r1}
  1032b8:	4708      	bx	r1
  1032ba:	4740      	bx	r8
  1032bc:	4748      	bx	r9
  1032be:	46c0      	nop			; (mov r8, r8)

001032c0 <_setlocale_r>:
  1032c0:	b538      	push	{r3, r4, r5, lr}
  1032c2:	1e14      	subs	r4, r2, #0
  1032c4:	d005      	beq.n	1032d2 <_setlocale_r+0x12>
  1032c6:	1c20      	adds	r0, r4, #0
  1032c8:	490d      	ldr	r1, [pc, #52]	; (103300 <_setlocale_r+0x40>)
  1032ca:	f000 fec9 	bl	104060 <strcmp>
  1032ce:	2800      	cmp	r0, #0
  1032d0:	d103      	bne.n	1032da <_setlocale_r+0x1a>
  1032d2:	480c      	ldr	r0, [pc, #48]	; (103304 <_setlocale_r+0x44>)
  1032d4:	bc38      	pop	{r3, r4, r5}
  1032d6:	bc02      	pop	{r1}
  1032d8:	4708      	bx	r1
  1032da:	4d0a      	ldr	r5, [pc, #40]	; (103304 <_setlocale_r+0x44>)
  1032dc:	1c20      	adds	r0, r4, #0
  1032de:	1c29      	adds	r1, r5, #0
  1032e0:	f000 febe 	bl	104060 <strcmp>
  1032e4:	1c03      	adds	r3, r0, #0
  1032e6:	1c28      	adds	r0, r5, #0
  1032e8:	2b00      	cmp	r3, #0
  1032ea:	d0f3      	beq.n	1032d4 <_setlocale_r+0x14>
  1032ec:	1c20      	adds	r0, r4, #0
  1032ee:	4906      	ldr	r1, [pc, #24]	; (103308 <_setlocale_r+0x48>)
  1032f0:	f000 feb6 	bl	104060 <strcmp>
  1032f4:	1c03      	adds	r3, r0, #0
  1032f6:	2000      	movs	r0, #0
  1032f8:	2b00      	cmp	r3, #0
  1032fa:	d1eb      	bne.n	1032d4 <_setlocale_r+0x14>
  1032fc:	1c28      	adds	r0, r5, #0
  1032fe:	e7e9      	b.n	1032d4 <_setlocale_r+0x14>
  103300:	00104b3c 	.word	0x00104b3c
  103304:	00104b08 	.word	0x00104b08
  103308:	00104804 	.word	0x00104804

0010330c <__locale_charset>:
  10330c:	4800      	ldr	r0, [pc, #0]	; (103310 <__locale_charset+0x4>)
  10330e:	4770      	bx	lr
  103310:	00200430 	.word	0x00200430

00103314 <__locale_mb_cur_max>:
  103314:	4b01      	ldr	r3, [pc, #4]	; (10331c <__locale_mb_cur_max+0x8>)
  103316:	6a18      	ldr	r0, [r3, #32]
  103318:	4770      	bx	lr
  10331a:	46c0      	nop			; (mov r8, r8)
  10331c:	00200430 	.word	0x00200430

00103320 <__locale_msgcharset>:
  103320:	4801      	ldr	r0, [pc, #4]	; (103328 <__locale_msgcharset+0x8>)
  103322:	3024      	adds	r0, #36	; 0x24
  103324:	4770      	bx	lr
  103326:	46c0      	nop			; (mov r8, r8)
  103328:	00200430 	.word	0x00200430

0010332c <__locale_cjk_lang>:
  10332c:	2000      	movs	r0, #0
  10332e:	4770      	bx	lr

00103330 <_localeconv_r>:
  103330:	4801      	ldr	r0, [pc, #4]	; (103338 <_localeconv_r+0x8>)
  103332:	3044      	adds	r0, #68	; 0x44
  103334:	4770      	bx	lr
  103336:	46c0      	nop			; (mov r8, r8)
  103338:	00200430 	.word	0x00200430

0010333c <setlocale>:
  10333c:	b508      	push	{r3, lr}
  10333e:	1c0a      	adds	r2, r1, #0
  103340:	4904      	ldr	r1, [pc, #16]	; (103354 <setlocale+0x18>)
  103342:	1c03      	adds	r3, r0, #0
  103344:	6808      	ldr	r0, [r1, #0]
  103346:	1c19      	adds	r1, r3, #0
  103348:	f7ff ffba 	bl	1032c0 <_setlocale_r>
  10334c:	bc08      	pop	{r3}
  10334e:	bc02      	pop	{r1}
  103350:	4708      	bx	r1
  103352:	46c0      	nop			; (mov r8, r8)
  103354:	00200000 	.word	0x00200000

00103358 <localeconv>:
  103358:	4801      	ldr	r0, [pc, #4]	; (103360 <localeconv+0x8>)
  10335a:	3044      	adds	r0, #68	; 0x44
  10335c:	4770      	bx	lr
  10335e:	46c0      	nop			; (mov r8, r8)
  103360:	00200430 	.word	0x00200430

00103364 <__smakebuf_r>:
  103364:	b5f0      	push	{r4, r5, r6, r7, lr}
  103366:	898b      	ldrh	r3, [r1, #12]
  103368:	b091      	sub	sp, #68	; 0x44
  10336a:	1c05      	adds	r5, r0, #0
  10336c:	1c0c      	adds	r4, r1, #0
  10336e:	1c1a      	adds	r2, r3, #0
  103370:	0798      	lsls	r0, r3, #30
  103372:	d442      	bmi.n	1033fa <__smakebuf_r+0x96>
  103374:	200e      	movs	r0, #14
  103376:	5e09      	ldrsh	r1, [r1, r0]
  103378:	2900      	cmp	r1, #0
  10337a:	db1b      	blt.n	1033b4 <__smakebuf_r+0x50>
  10337c:	1c28      	adds	r0, r5, #0
  10337e:	aa01      	add	r2, sp, #4
  103380:	f7fc fef0 	bl	100164 <_fstat_r>
  103384:	2800      	cmp	r0, #0
  103386:	db13      	blt.n	1033b0 <__smakebuf_r+0x4c>
  103388:	9a02      	ldr	r2, [sp, #8]
  10338a:	23f0      	movs	r3, #240	; 0xf0
  10338c:	021b      	lsls	r3, r3, #8
  10338e:	4013      	ands	r3, r2
  103390:	4a2a      	ldr	r2, [pc, #168]	; (10343c <__smakebuf_r+0xd8>)
  103392:	189f      	adds	r7, r3, r2
  103394:	427a      	negs	r2, r7
  103396:	4157      	adcs	r7, r2
  103398:	2280      	movs	r2, #128	; 0x80
  10339a:	0212      	lsls	r2, r2, #8
  10339c:	4293      	cmp	r3, r2
  10339e:	d042      	beq.n	103426 <__smakebuf_r+0xc2>
  1033a0:	89a2      	ldrh	r2, [r4, #12]
  1033a2:	2380      	movs	r3, #128	; 0x80
  1033a4:	011b      	lsls	r3, r3, #4
  1033a6:	4313      	orrs	r3, r2
  1033a8:	2680      	movs	r6, #128	; 0x80
  1033aa:	81a3      	strh	r3, [r4, #12]
  1033ac:	00f6      	lsls	r6, r6, #3
  1033ae:	e009      	b.n	1033c4 <__smakebuf_r+0x60>
  1033b0:	89a3      	ldrh	r3, [r4, #12]
  1033b2:	1c1a      	adds	r2, r3, #0
  1033b4:	2640      	movs	r6, #64	; 0x40
  1033b6:	0611      	lsls	r1, r2, #24
  1033b8:	d532      	bpl.n	103420 <__smakebuf_r+0xbc>
  1033ba:	2280      	movs	r2, #128	; 0x80
  1033bc:	0112      	lsls	r2, r2, #4
  1033be:	4313      	orrs	r3, r2
  1033c0:	81a3      	strh	r3, [r4, #12]
  1033c2:	2700      	movs	r7, #0
  1033c4:	1c28      	adds	r0, r5, #0
  1033c6:	1c31      	adds	r1, r6, #0
  1033c8:	f000 f856 	bl	103478 <_malloc_r>
  1033cc:	2800      	cmp	r0, #0
  1033ce:	d00e      	beq.n	1033ee <__smakebuf_r+0x8a>
  1033d0:	4b1b      	ldr	r3, [pc, #108]	; (103440 <__smakebuf_r+0xdc>)
  1033d2:	63eb      	str	r3, [r5, #60]	; 0x3c
  1033d4:	89a2      	ldrh	r2, [r4, #12]
  1033d6:	2380      	movs	r3, #128	; 0x80
  1033d8:	4313      	orrs	r3, r2
  1033da:	81a3      	strh	r3, [r4, #12]
  1033dc:	6020      	str	r0, [r4, #0]
  1033de:	6120      	str	r0, [r4, #16]
  1033e0:	6166      	str	r6, [r4, #20]
  1033e2:	2f00      	cmp	r7, #0
  1033e4:	d110      	bne.n	103408 <__smakebuf_r+0xa4>
  1033e6:	b011      	add	sp, #68	; 0x44
  1033e8:	bcf0      	pop	{r4, r5, r6, r7}
  1033ea:	bc01      	pop	{r0}
  1033ec:	4700      	bx	r0
  1033ee:	89a3      	ldrh	r3, [r4, #12]
  1033f0:	0598      	lsls	r0, r3, #22
  1033f2:	d4f8      	bmi.n	1033e6 <__smakebuf_r+0x82>
  1033f4:	2202      	movs	r2, #2
  1033f6:	4313      	orrs	r3, r2
  1033f8:	81a3      	strh	r3, [r4, #12]
  1033fa:	1c23      	adds	r3, r4, #0
  1033fc:	3343      	adds	r3, #67	; 0x43
  1033fe:	6023      	str	r3, [r4, #0]
  103400:	6123      	str	r3, [r4, #16]
  103402:	2301      	movs	r3, #1
  103404:	6163      	str	r3, [r4, #20]
  103406:	e7ee      	b.n	1033e6 <__smakebuf_r+0x82>
  103408:	220e      	movs	r2, #14
  10340a:	5ea1      	ldrsh	r1, [r4, r2]
  10340c:	1c28      	adds	r0, r5, #0
  10340e:	f000 ff9f 	bl	104350 <_isatty_r>
  103412:	2800      	cmp	r0, #0
  103414:	d0e7      	beq.n	1033e6 <__smakebuf_r+0x82>
  103416:	89a2      	ldrh	r2, [r4, #12]
  103418:	2301      	movs	r3, #1
  10341a:	4313      	orrs	r3, r2
  10341c:	81a3      	strh	r3, [r4, #12]
  10341e:	e7e2      	b.n	1033e6 <__smakebuf_r+0x82>
  103420:	2680      	movs	r6, #128	; 0x80
  103422:	00f6      	lsls	r6, r6, #3
  103424:	e7c9      	b.n	1033ba <__smakebuf_r+0x56>
  103426:	6aa2      	ldr	r2, [r4, #40]	; 0x28
  103428:	4b06      	ldr	r3, [pc, #24]	; (103444 <__smakebuf_r+0xe0>)
  10342a:	429a      	cmp	r2, r3
  10342c:	d1b8      	bne.n	1033a0 <__smakebuf_r+0x3c>
  10342e:	89a3      	ldrh	r3, [r4, #12]
  103430:	2680      	movs	r6, #128	; 0x80
  103432:	00f6      	lsls	r6, r6, #3
  103434:	4333      	orrs	r3, r6
  103436:	81a3      	strh	r3, [r4, #12]
  103438:	64e6      	str	r6, [r4, #76]	; 0x4c
  10343a:	e7c3      	b.n	1033c4 <__smakebuf_r+0x60>
  10343c:	ffffe000 	.word	0xffffe000
  103440:	001029b9 	.word	0x001029b9
  103444:	00104021 	.word	0x00104021

00103448 <malloc>:
  103448:	b508      	push	{r3, lr}
  10344a:	4b04      	ldr	r3, [pc, #16]	; (10345c <malloc+0x14>)
  10344c:	1c01      	adds	r1, r0, #0
  10344e:	6818      	ldr	r0, [r3, #0]
  103450:	f000 f812 	bl	103478 <_malloc_r>
  103454:	bc08      	pop	{r3}
  103456:	bc02      	pop	{r1}
  103458:	4708      	bx	r1
  10345a:	46c0      	nop			; (mov r8, r8)
  10345c:	00200000 	.word	0x00200000

00103460 <free>:
  103460:	b508      	push	{r3, lr}
  103462:	4b04      	ldr	r3, [pc, #16]	; (103474 <free+0x14>)
  103464:	1c01      	adds	r1, r0, #0
  103466:	6818      	ldr	r0, [r3, #0]
  103468:	f7ff fc68 	bl	102d3c <_free_r>
  10346c:	bc08      	pop	{r3}
  10346e:	bc01      	pop	{r0}
  103470:	4700      	bx	r0
  103472:	46c0      	nop			; (mov r8, r8)
  103474:	00200000 	.word	0x00200000

00103478 <_malloc_r>:
  103478:	b5f0      	push	{r4, r5, r6, r7, lr}
  10347a:	465f      	mov	r7, fp
  10347c:	4656      	mov	r6, sl
  10347e:	464d      	mov	r5, r9
  103480:	4644      	mov	r4, r8
  103482:	b4f0      	push	{r4, r5, r6, r7}
  103484:	1c0d      	adds	r5, r1, #0
  103486:	350b      	adds	r5, #11
  103488:	b083      	sub	sp, #12
  10348a:	1c07      	adds	r7, r0, #0
  10348c:	2d16      	cmp	r5, #22
  10348e:	d92e      	bls.n	1034ee <_malloc_r+0x76>
  103490:	2307      	movs	r3, #7
  103492:	439d      	bics	r5, r3
  103494:	0feb      	lsrs	r3, r5, #31
  103496:	428d      	cmp	r5, r1
  103498:	d32d      	bcc.n	1034f6 <_malloc_r+0x7e>
  10349a:	2b00      	cmp	r3, #0
  10349c:	d12b      	bne.n	1034f6 <_malloc_r+0x7e>
  10349e:	1c38      	adds	r0, r7, #0
  1034a0:	f000 fba2 	bl	103be8 <__malloc_lock>
  1034a4:	4bc9      	ldr	r3, [pc, #804]	; (1037cc <_malloc_r+0x354>)
  1034a6:	429d      	cmp	r5, r3
  1034a8:	d829      	bhi.n	1034fe <_malloc_r+0x86>
  1034aa:	08ea      	lsrs	r2, r5, #3
  1034ac:	4ec8      	ldr	r6, [pc, #800]	; (1037d0 <_malloc_r+0x358>)
  1034ae:	00d3      	lsls	r3, r2, #3
  1034b0:	18f3      	adds	r3, r6, r3
  1034b2:	68dc      	ldr	r4, [r3, #12]
  1034b4:	429c      	cmp	r4, r3
  1034b6:	d100      	bne.n	1034ba <_malloc_r+0x42>
  1034b8:	e17e      	b.n	1037b8 <_malloc_r+0x340>
  1034ba:	6863      	ldr	r3, [r4, #4]
  1034bc:	2203      	movs	r2, #3
  1034be:	68a1      	ldr	r1, [r4, #8]
  1034c0:	4393      	bics	r3, r2
  1034c2:	68e2      	ldr	r2, [r4, #12]
  1034c4:	18e3      	adds	r3, r4, r3
  1034c6:	60ca      	str	r2, [r1, #12]
  1034c8:	6091      	str	r1, [r2, #8]
  1034ca:	6859      	ldr	r1, [r3, #4]
  1034cc:	2201      	movs	r2, #1
  1034ce:	430a      	orrs	r2, r1
  1034d0:	1c38      	adds	r0, r7, #0
  1034d2:	605a      	str	r2, [r3, #4]
  1034d4:	f000 fb8a 	bl	103bec <__malloc_unlock>
  1034d8:	1c20      	adds	r0, r4, #0
  1034da:	3008      	adds	r0, #8
  1034dc:	b003      	add	sp, #12
  1034de:	bc3c      	pop	{r2, r3, r4, r5}
  1034e0:	4690      	mov	r8, r2
  1034e2:	4699      	mov	r9, r3
  1034e4:	46a2      	mov	sl, r4
  1034e6:	46ab      	mov	fp, r5
  1034e8:	bcf0      	pop	{r4, r5, r6, r7}
  1034ea:	bc02      	pop	{r1}
  1034ec:	4708      	bx	r1
  1034ee:	2510      	movs	r5, #16
  1034f0:	2300      	movs	r3, #0
  1034f2:	428d      	cmp	r5, r1
  1034f4:	d2d1      	bcs.n	10349a <_malloc_r+0x22>
  1034f6:	230c      	movs	r3, #12
  1034f8:	603b      	str	r3, [r7, #0]
  1034fa:	2000      	movs	r0, #0
  1034fc:	e7ee      	b.n	1034dc <_malloc_r+0x64>
  1034fe:	0a6b      	lsrs	r3, r5, #9
  103500:	d100      	bne.n	103504 <_malloc_r+0x8c>
  103502:	e08b      	b.n	10361c <_malloc_r+0x1a4>
  103504:	2b04      	cmp	r3, #4
  103506:	d900      	bls.n	10350a <_malloc_r+0x92>
  103508:	e0f0      	b.n	1036ec <_malloc_r+0x274>
  10350a:	09ab      	lsrs	r3, r5, #6
  10350c:	3338      	adds	r3, #56	; 0x38
  10350e:	469c      	mov	ip, r3
  103510:	00d9      	lsls	r1, r3, #3
  103512:	4eaf      	ldr	r6, [pc, #700]	; (1037d0 <_malloc_r+0x358>)
  103514:	1871      	adds	r1, r6, r1
  103516:	68cc      	ldr	r4, [r1, #12]
  103518:	42a1      	cmp	r1, r4
  10351a:	d015      	beq.n	103548 <_malloc_r+0xd0>
  10351c:	6862      	ldr	r2, [r4, #4]
  10351e:	2303      	movs	r3, #3
  103520:	439a      	bics	r2, r3
  103522:	1b53      	subs	r3, r2, r5
  103524:	2b0f      	cmp	r3, #15
  103526:	dd00      	ble.n	10352a <_malloc_r+0xb2>
  103528:	e08b      	b.n	103642 <_malloc_r+0x1ca>
  10352a:	2003      	movs	r0, #3
  10352c:	2b00      	cmp	r3, #0
  10352e:	db08      	blt.n	103542 <_malloc_r+0xca>
  103530:	e078      	b.n	103624 <_malloc_r+0x1ac>
  103532:	6862      	ldr	r2, [r4, #4]
  103534:	4382      	bics	r2, r0
  103536:	1b53      	subs	r3, r2, r5
  103538:	2b0f      	cmp	r3, #15
  10353a:	dd00      	ble.n	10353e <_malloc_r+0xc6>
  10353c:	e081      	b.n	103642 <_malloc_r+0x1ca>
  10353e:	2b00      	cmp	r3, #0
  103540:	da70      	bge.n	103624 <_malloc_r+0x1ac>
  103542:	68e4      	ldr	r4, [r4, #12]
  103544:	42a1      	cmp	r1, r4
  103546:	d1f4      	bne.n	103532 <_malloc_r+0xba>
  103548:	2001      	movs	r0, #1
  10354a:	4484      	add	ip, r0
  10354c:	1c33      	adds	r3, r6, #0
  10354e:	6934      	ldr	r4, [r6, #16]
  103550:	3308      	adds	r3, #8
  103552:	429c      	cmp	r4, r3
  103554:	d100      	bne.n	103558 <_malloc_r+0xe0>
  103556:	e10c      	b.n	103772 <_malloc_r+0x2fa>
  103558:	6862      	ldr	r2, [r4, #4]
  10355a:	2103      	movs	r1, #3
  10355c:	438a      	bics	r2, r1
  10355e:	1b51      	subs	r1, r2, r5
  103560:	290f      	cmp	r1, #15
  103562:	dd00      	ble.n	103566 <_malloc_r+0xee>
  103564:	e0f4      	b.n	103750 <_malloc_r+0x2d8>
  103566:	6173      	str	r3, [r6, #20]
  103568:	6133      	str	r3, [r6, #16]
  10356a:	2900      	cmp	r1, #0
  10356c:	da5e      	bge.n	10362c <_malloc_r+0x1b4>
  10356e:	4b99      	ldr	r3, [pc, #612]	; (1037d4 <_malloc_r+0x35c>)
  103570:	429a      	cmp	r2, r3
  103572:	d900      	bls.n	103576 <_malloc_r+0xfe>
  103574:	e0c5      	b.n	103702 <_malloc_r+0x28a>
  103576:	08d2      	lsrs	r2, r2, #3
  103578:	1093      	asrs	r3, r2, #2
  10357a:	2001      	movs	r0, #1
  10357c:	4098      	lsls	r0, r3
  10357e:	6873      	ldr	r3, [r6, #4]
  103580:	00d2      	lsls	r2, r2, #3
  103582:	4318      	orrs	r0, r3
  103584:	18b3      	adds	r3, r6, r2
  103586:	689a      	ldr	r2, [r3, #8]
  103588:	60e3      	str	r3, [r4, #12]
  10358a:	60a2      	str	r2, [r4, #8]
  10358c:	6070      	str	r0, [r6, #4]
  10358e:	609c      	str	r4, [r3, #8]
  103590:	60d4      	str	r4, [r2, #12]
  103592:	4661      	mov	r1, ip
  103594:	108b      	asrs	r3, r1, #2
  103596:	2101      	movs	r1, #1
  103598:	4099      	lsls	r1, r3
  10359a:	4281      	cmp	r1, r0
  10359c:	d855      	bhi.n	10364a <_malloc_r+0x1d2>
  10359e:	4201      	tst	r1, r0
  1035a0:	d10d      	bne.n	1035be <_malloc_r+0x146>
  1035a2:	2303      	movs	r3, #3
  1035a4:	4662      	mov	r2, ip
  1035a6:	439a      	bics	r2, r3
  1035a8:	1c13      	adds	r3, r2, #0
  1035aa:	3304      	adds	r3, #4
  1035ac:	0049      	lsls	r1, r1, #1
  1035ae:	469c      	mov	ip, r3
  1035b0:	4201      	tst	r1, r0
  1035b2:	d104      	bne.n	1035be <_malloc_r+0x146>
  1035b4:	2304      	movs	r3, #4
  1035b6:	0049      	lsls	r1, r1, #1
  1035b8:	449c      	add	ip, r3
  1035ba:	4208      	tst	r0, r1
  1035bc:	d0fa      	beq.n	1035b4 <_malloc_r+0x13c>
  1035be:	2003      	movs	r0, #3
  1035c0:	4680      	mov	r8, r0
  1035c2:	4662      	mov	r2, ip
  1035c4:	00d3      	lsls	r3, r2, #3
  1035c6:	199b      	adds	r3, r3, r6
  1035c8:	469a      	mov	sl, r3
  1035ca:	1c18      	adds	r0, r3, #0
  1035cc:	46e1      	mov	r9, ip
  1035ce:	68c4      	ldr	r4, [r0, #12]
  1035d0:	42a0      	cmp	r0, r4
  1035d2:	d107      	bne.n	1035e4 <_malloc_r+0x16c>
  1035d4:	e0cf      	b.n	103776 <_malloc_r+0x2fe>
  1035d6:	2b00      	cmp	r3, #0
  1035d8:	db00      	blt.n	1035dc <_malloc_r+0x164>
  1035da:	e103      	b.n	1037e4 <_malloc_r+0x36c>
  1035dc:	68e4      	ldr	r4, [r4, #12]
  1035de:	42a0      	cmp	r0, r4
  1035e0:	d100      	bne.n	1035e4 <_malloc_r+0x16c>
  1035e2:	e0c8      	b.n	103776 <_malloc_r+0x2fe>
  1035e4:	6862      	ldr	r2, [r4, #4]
  1035e6:	4643      	mov	r3, r8
  1035e8:	439a      	bics	r2, r3
  1035ea:	1b53      	subs	r3, r2, r5
  1035ec:	2b0f      	cmp	r3, #15
  1035ee:	ddf2      	ble.n	1035d6 <_malloc_r+0x15e>
  1035f0:	2101      	movs	r1, #1
  1035f2:	1962      	adds	r2, r4, r5
  1035f4:	430d      	orrs	r5, r1
  1035f6:	68e0      	ldr	r0, [r4, #12]
  1035f8:	6065      	str	r5, [r4, #4]
  1035fa:	68a5      	ldr	r5, [r4, #8]
  1035fc:	4319      	orrs	r1, r3
  1035fe:	60e8      	str	r0, [r5, #12]
  103600:	6085      	str	r5, [r0, #8]
  103602:	6172      	str	r2, [r6, #20]
  103604:	6132      	str	r2, [r6, #16]
  103606:	3608      	adds	r6, #8
  103608:	1c38      	adds	r0, r7, #0
  10360a:	60d6      	str	r6, [r2, #12]
  10360c:	6096      	str	r6, [r2, #8]
  10360e:	6051      	str	r1, [r2, #4]
  103610:	50d3      	str	r3, [r2, r3]
  103612:	f000 faeb 	bl	103bec <__malloc_unlock>
  103616:	1c20      	adds	r0, r4, #0
  103618:	3008      	adds	r0, #8
  10361a:	e75f      	b.n	1034dc <_malloc_r+0x64>
  10361c:	08e8      	lsrs	r0, r5, #3
  10361e:	4684      	mov	ip, r0
  103620:	00c1      	lsls	r1, r0, #3
  103622:	e776      	b.n	103512 <_malloc_r+0x9a>
  103624:	68e3      	ldr	r3, [r4, #12]
  103626:	68a1      	ldr	r1, [r4, #8]
  103628:	60cb      	str	r3, [r1, #12]
  10362a:	6099      	str	r1, [r3, #8]
  10362c:	18a2      	adds	r2, r4, r2
  10362e:	6851      	ldr	r1, [r2, #4]
  103630:	2301      	movs	r3, #1
  103632:	430b      	orrs	r3, r1
  103634:	1c38      	adds	r0, r7, #0
  103636:	6053      	str	r3, [r2, #4]
  103638:	f000 fad8 	bl	103bec <__malloc_unlock>
  10363c:	1c20      	adds	r0, r4, #0
  10363e:	3008      	adds	r0, #8
  103640:	e74c      	b.n	1034dc <_malloc_r+0x64>
  103642:	2301      	movs	r3, #1
  103644:	425b      	negs	r3, r3
  103646:	449c      	add	ip, r3
  103648:	e77e      	b.n	103548 <_malloc_r+0xd0>
  10364a:	68b4      	ldr	r4, [r6, #8]
  10364c:	6863      	ldr	r3, [r4, #4]
  10364e:	2203      	movs	r2, #3
  103650:	4393      	bics	r3, r2
  103652:	469b      	mov	fp, r3
  103654:	1b5b      	subs	r3, r3, r5
  103656:	0fd8      	lsrs	r0, r3, #31
  103658:	2200      	movs	r2, #0
  10365a:	210f      	movs	r1, #15
  10365c:	4299      	cmp	r1, r3
  10365e:	4142      	adcs	r2, r0
  103660:	0612      	lsls	r2, r2, #24
  103662:	d10f      	bne.n	103684 <_malloc_r+0x20c>
  103664:	45ab      	cmp	fp, r5
  103666:	d30d      	bcc.n	103684 <_malloc_r+0x20c>
  103668:	2201      	movs	r2, #1
  10366a:	1c29      	adds	r1, r5, #0
  10366c:	4311      	orrs	r1, r2
  10366e:	1965      	adds	r5, r4, r5
  103670:	4313      	orrs	r3, r2
  103672:	6061      	str	r1, [r4, #4]
  103674:	1c38      	adds	r0, r7, #0
  103676:	60b5      	str	r5, [r6, #8]
  103678:	606b      	str	r3, [r5, #4]
  10367a:	f000 fab7 	bl	103bec <__malloc_unlock>
  10367e:	1c20      	adds	r0, r4, #0
  103680:	3008      	adds	r0, #8
  103682:	e72b      	b.n	1034dc <_malloc_r+0x64>
  103684:	4b54      	ldr	r3, [pc, #336]	; (1037d8 <_malloc_r+0x360>)
  103686:	4955      	ldr	r1, [pc, #340]	; (1037dc <_malloc_r+0x364>)
  103688:	4698      	mov	r8, r3
  10368a:	688a      	ldr	r2, [r1, #8]
  10368c:	681b      	ldr	r3, [r3, #0]
  10368e:	468a      	mov	sl, r1
  103690:	18eb      	adds	r3, r5, r3
  103692:	3201      	adds	r2, #1
  103694:	d100      	bne.n	103698 <_malloc_r+0x220>
  103696:	e0bc      	b.n	103812 <_malloc_r+0x39a>
  103698:	4951      	ldr	r1, [pc, #324]	; (1037e0 <_malloc_r+0x368>)
  10369a:	185b      	adds	r3, r3, r1
  10369c:	0b1b      	lsrs	r3, r3, #12
  10369e:	031b      	lsls	r3, r3, #12
  1036a0:	9301      	str	r3, [sp, #4]
  1036a2:	1c38      	adds	r0, r7, #0
  1036a4:	9901      	ldr	r1, [sp, #4]
  1036a6:	f7fc fd65 	bl	100174 <_sbrk_r>
  1036aa:	1c02      	adds	r2, r0, #0
  1036ac:	4681      	mov	r9, r0
  1036ae:	3201      	adds	r2, #1
  1036b0:	d007      	beq.n	1036c2 <_malloc_r+0x24a>
  1036b2:	465b      	mov	r3, fp
  1036b4:	18e2      	adds	r2, r4, r3
  1036b6:	4282      	cmp	r2, r0
  1036b8:	d800      	bhi.n	1036bc <_malloc_r+0x244>
  1036ba:	e0ad      	b.n	103818 <_malloc_r+0x3a0>
  1036bc:	42b4      	cmp	r4, r6
  1036be:	d100      	bne.n	1036c2 <_malloc_r+0x24a>
  1036c0:	e0aa      	b.n	103818 <_malloc_r+0x3a0>
  1036c2:	68b4      	ldr	r4, [r6, #8]
  1036c4:	6862      	ldr	r2, [r4, #4]
  1036c6:	2303      	movs	r3, #3
  1036c8:	439a      	bics	r2, r3
  1036ca:	4692      	mov	sl, r2
  1036cc:	4650      	mov	r0, sl
  1036ce:	1b43      	subs	r3, r0, r5
  1036d0:	0fd9      	lsrs	r1, r3, #31
  1036d2:	2200      	movs	r2, #0
  1036d4:	200f      	movs	r0, #15
  1036d6:	4298      	cmp	r0, r3
  1036d8:	414a      	adcs	r2, r1
  1036da:	0611      	lsls	r1, r2, #24
  1036dc:	d101      	bne.n	1036e2 <_malloc_r+0x26a>
  1036de:	45aa      	cmp	sl, r5
  1036e0:	d2c2      	bcs.n	103668 <_malloc_r+0x1f0>
  1036e2:	1c38      	adds	r0, r7, #0
  1036e4:	f000 fa82 	bl	103bec <__malloc_unlock>
  1036e8:	2000      	movs	r0, #0
  1036ea:	e6f7      	b.n	1034dc <_malloc_r+0x64>
  1036ec:	2b14      	cmp	r3, #20
  1036ee:	d800      	bhi.n	1036f2 <_malloc_r+0x27a>
  1036f0:	e087      	b.n	103802 <_malloc_r+0x38a>
  1036f2:	2b54      	cmp	r3, #84	; 0x54
  1036f4:	d900      	bls.n	1036f8 <_malloc_r+0x280>
  1036f6:	e0e3      	b.n	1038c0 <_malloc_r+0x448>
  1036f8:	0b2b      	lsrs	r3, r5, #12
  1036fa:	336e      	adds	r3, #110	; 0x6e
  1036fc:	469c      	mov	ip, r3
  1036fe:	00d9      	lsls	r1, r3, #3
  103700:	e707      	b.n	103512 <_malloc_r+0x9a>
  103702:	0a53      	lsrs	r3, r2, #9
  103704:	2b04      	cmp	r3, #4
  103706:	d800      	bhi.n	10370a <_malloc_r+0x292>
  103708:	e07f      	b.n	10380a <_malloc_r+0x392>
  10370a:	2b14      	cmp	r3, #20
  10370c:	d900      	bls.n	103710 <_malloc_r+0x298>
  10370e:	e0f3      	b.n	1038f8 <_malloc_r+0x480>
  103710:	1c19      	adds	r1, r3, #0
  103712:	315b      	adds	r1, #91	; 0x5b
  103714:	00c8      	lsls	r0, r1, #3
  103716:	1980      	adds	r0, r0, r6
  103718:	6883      	ldr	r3, [r0, #8]
  10371a:	4682      	mov	sl, r0
  10371c:	4283      	cmp	r3, r0
  10371e:	d100      	bne.n	103722 <_malloc_r+0x2aa>
  103720:	e0da      	b.n	1038d8 <_malloc_r+0x460>
  103722:	6859      	ldr	r1, [r3, #4]
  103724:	2003      	movs	r0, #3
  103726:	4680      	mov	r8, r0
  103728:	4381      	bics	r1, r0
  10372a:	428a      	cmp	r2, r1
  10372c:	d306      	bcc.n	10373c <_malloc_r+0x2c4>
  10372e:	e008      	b.n	103742 <_malloc_r+0x2ca>
  103730:	6858      	ldr	r0, [r3, #4]
  103732:	1c01      	adds	r1, r0, #0
  103734:	4640      	mov	r0, r8
  103736:	4381      	bics	r1, r0
  103738:	428a      	cmp	r2, r1
  10373a:	d202      	bcs.n	103742 <_malloc_r+0x2ca>
  10373c:	689b      	ldr	r3, [r3, #8]
  10373e:	459a      	cmp	sl, r3
  103740:	d1f6      	bne.n	103730 <_malloc_r+0x2b8>
  103742:	68da      	ldr	r2, [r3, #12]
  103744:	6870      	ldr	r0, [r6, #4]
  103746:	60e2      	str	r2, [r4, #12]
  103748:	60a3      	str	r3, [r4, #8]
  10374a:	60dc      	str	r4, [r3, #12]
  10374c:	6094      	str	r4, [r2, #8]
  10374e:	e720      	b.n	103592 <_malloc_r+0x11a>
  103750:	2001      	movs	r0, #1
  103752:	1962      	adds	r2, r4, r5
  103754:	4305      	orrs	r5, r0
  103756:	4308      	orrs	r0, r1
  103758:	6065      	str	r5, [r4, #4]
  10375a:	6172      	str	r2, [r6, #20]
  10375c:	6132      	str	r2, [r6, #16]
  10375e:	6050      	str	r0, [r2, #4]
  103760:	60d3      	str	r3, [r2, #12]
  103762:	1c38      	adds	r0, r7, #0
  103764:	6093      	str	r3, [r2, #8]
  103766:	5051      	str	r1, [r2, r1]
  103768:	f000 fa40 	bl	103bec <__malloc_unlock>
  10376c:	1c20      	adds	r0, r4, #0
  10376e:	3008      	adds	r0, #8
  103770:	e6b4      	b.n	1034dc <_malloc_r+0x64>
  103772:	6870      	ldr	r0, [r6, #4]
  103774:	e70d      	b.n	103592 <_malloc_r+0x11a>
  103776:	2201      	movs	r2, #1
  103778:	4491      	add	r9, r2
  10377a:	4643      	mov	r3, r8
  10377c:	464a      	mov	r2, r9
  10377e:	3008      	adds	r0, #8
  103780:	4213      	tst	r3, r2
  103782:	d000      	beq.n	103786 <_malloc_r+0x30e>
  103784:	e723      	b.n	1035ce <_malloc_r+0x156>
  103786:	4652      	mov	r2, sl
  103788:	4663      	mov	r3, ip
  10378a:	4640      	mov	r0, r8
  10378c:	4218      	tst	r0, r3
  10378e:	d100      	bne.n	103792 <_malloc_r+0x31a>
  103790:	e0ec      	b.n	10396c <_malloc_r+0x4f4>
  103792:	1c10      	adds	r0, r2, #0
  103794:	6812      	ldr	r2, [r2, #0]
  103796:	3808      	subs	r0, #8
  103798:	3b01      	subs	r3, #1
  10379a:	4282      	cmp	r2, r0
  10379c:	d0f5      	beq.n	10378a <_malloc_r+0x312>
  10379e:	6873      	ldr	r3, [r6, #4]
  1037a0:	0049      	lsls	r1, r1, #1
  1037a2:	4299      	cmp	r1, r3
  1037a4:	d900      	bls.n	1037a8 <_malloc_r+0x330>
  1037a6:	e750      	b.n	10364a <_malloc_r+0x1d2>
  1037a8:	2900      	cmp	r1, #0
  1037aa:	d100      	bne.n	1037ae <_malloc_r+0x336>
  1037ac:	e74d      	b.n	10364a <_malloc_r+0x1d2>
  1037ae:	420b      	tst	r3, r1
  1037b0:	d100      	bne.n	1037b4 <_malloc_r+0x33c>
  1037b2:	e0df      	b.n	103974 <_malloc_r+0x4fc>
  1037b4:	46cc      	mov	ip, r9
  1037b6:	e704      	b.n	1035c2 <_malloc_r+0x14a>
  1037b8:	1c23      	adds	r3, r4, #0
  1037ba:	6964      	ldr	r4, [r4, #20]
  1037bc:	3202      	adds	r2, #2
  1037be:	3308      	adds	r3, #8
  1037c0:	4694      	mov	ip, r2
  1037c2:	42a3      	cmp	r3, r4
  1037c4:	d100      	bne.n	1037c8 <_malloc_r+0x350>
  1037c6:	e6c1      	b.n	10354c <_malloc_r+0xd4>
  1037c8:	e677      	b.n	1034ba <_malloc_r+0x42>
  1037ca:	46c0      	nop			; (mov r8, r8)
  1037cc:	000001f7 	.word	0x000001f7
  1037d0:	002004ac 	.word	0x002004ac
  1037d4:	000001ff 	.word	0x000001ff
  1037d8:	00200954 	.word	0x00200954
  1037dc:	002008ac 	.word	0x002008ac
  1037e0:	0000100f 	.word	0x0000100f
  1037e4:	18a2      	adds	r2, r4, r2
  1037e6:	6851      	ldr	r1, [r2, #4]
  1037e8:	2301      	movs	r3, #1
  1037ea:	430b      	orrs	r3, r1
  1037ec:	6053      	str	r3, [r2, #4]
  1037ee:	68e3      	ldr	r3, [r4, #12]
  1037f0:	68a2      	ldr	r2, [r4, #8]
  1037f2:	1c38      	adds	r0, r7, #0
  1037f4:	60d3      	str	r3, [r2, #12]
  1037f6:	609a      	str	r2, [r3, #8]
  1037f8:	f000 f9f8 	bl	103bec <__malloc_unlock>
  1037fc:	1c20      	adds	r0, r4, #0
  1037fe:	3008      	adds	r0, #8
  103800:	e66c      	b.n	1034dc <_malloc_r+0x64>
  103802:	335b      	adds	r3, #91	; 0x5b
  103804:	469c      	mov	ip, r3
  103806:	00d9      	lsls	r1, r3, #3
  103808:	e683      	b.n	103512 <_malloc_r+0x9a>
  10380a:	0991      	lsrs	r1, r2, #6
  10380c:	3138      	adds	r1, #56	; 0x38
  10380e:	00c8      	lsls	r0, r1, #3
  103810:	e781      	b.n	103716 <_malloc_r+0x29e>
  103812:	3310      	adds	r3, #16
  103814:	9301      	str	r3, [sp, #4]
  103816:	e744      	b.n	1036a2 <_malloc_r+0x22a>
  103818:	4640      	mov	r0, r8
  10381a:	6843      	ldr	r3, [r0, #4]
  10381c:	9901      	ldr	r1, [sp, #4]
  10381e:	18cb      	adds	r3, r1, r3
  103820:	6043      	str	r3, [r0, #4]
  103822:	454a      	cmp	r2, r9
  103824:	d100      	bne.n	103828 <_malloc_r+0x3b0>
  103826:	e080      	b.n	10392a <_malloc_r+0x4b2>
  103828:	4650      	mov	r0, sl
  10382a:	6881      	ldr	r1, [r0, #8]
  10382c:	3101      	adds	r1, #1
  10382e:	d100      	bne.n	103832 <_malloc_r+0x3ba>
  103830:	e08a      	b.n	103948 <_malloc_r+0x4d0>
  103832:	4648      	mov	r0, r9
  103834:	1a82      	subs	r2, r0, r2
  103836:	189b      	adds	r3, r3, r2
  103838:	4641      	mov	r1, r8
  10383a:	604b      	str	r3, [r1, #4]
  10383c:	2307      	movs	r3, #7
  10383e:	464a      	mov	r2, r9
  103840:	4013      	ands	r3, r2
  103842:	d046      	beq.n	1038d2 <_malloc_r+0x45a>
  103844:	1ad2      	subs	r2, r2, r3
  103846:	3208      	adds	r2, #8
  103848:	4691      	mov	r9, r2
  10384a:	4a4e      	ldr	r2, [pc, #312]	; (103984 <_malloc_r+0x50c>)
  10384c:	1ad3      	subs	r3, r2, r3
  10384e:	9801      	ldr	r0, [sp, #4]
  103850:	1c02      	adds	r2, r0, #0
  103852:	444a      	add	r2, r9
  103854:	0512      	lsls	r2, r2, #20
  103856:	0d12      	lsrs	r2, r2, #20
  103858:	1a9a      	subs	r2, r3, r2
  10385a:	1c11      	adds	r1, r2, #0
  10385c:	1c38      	adds	r0, r7, #0
  10385e:	4692      	mov	sl, r2
  103860:	f7fc fc88 	bl	100174 <_sbrk_r>
  103864:	1c41      	adds	r1, r0, #1
  103866:	d06b      	beq.n	103940 <_malloc_r+0x4c8>
  103868:	464a      	mov	r2, r9
  10386a:	1a80      	subs	r0, r0, r2
  10386c:	4450      	add	r0, sl
  10386e:	2301      	movs	r3, #1
  103870:	4318      	orrs	r0, r3
  103872:	4641      	mov	r1, r8
  103874:	684b      	ldr	r3, [r1, #4]
  103876:	464a      	mov	r2, r9
  103878:	4453      	add	r3, sl
  10387a:	604b      	str	r3, [r1, #4]
  10387c:	60b2      	str	r2, [r6, #8]
  10387e:	6050      	str	r0, [r2, #4]
  103880:	42b4      	cmp	r4, r6
  103882:	d011      	beq.n	1038a8 <_malloc_r+0x430>
  103884:	4658      	mov	r0, fp
  103886:	280f      	cmp	r0, #15
  103888:	d93c      	bls.n	103904 <_malloc_r+0x48c>
  10388a:	465a      	mov	r2, fp
  10388c:	6860      	ldr	r0, [r4, #4]
  10388e:	2107      	movs	r1, #7
  103890:	3a0c      	subs	r2, #12
  103892:	438a      	bics	r2, r1
  103894:	2101      	movs	r1, #1
  103896:	4001      	ands	r1, r0
  103898:	4311      	orrs	r1, r2
  10389a:	6061      	str	r1, [r4, #4]
  10389c:	2005      	movs	r0, #5
  10389e:	18a1      	adds	r1, r4, r2
  1038a0:	6048      	str	r0, [r1, #4]
  1038a2:	6088      	str	r0, [r1, #8]
  1038a4:	2a0f      	cmp	r2, #15
  1038a6:	d852      	bhi.n	10394e <_malloc_r+0x4d6>
  1038a8:	4640      	mov	r0, r8
  1038aa:	6ac2      	ldr	r2, [r0, #44]	; 0x2c
  1038ac:	4293      	cmp	r3, r2
  1038ae:	d900      	bls.n	1038b2 <_malloc_r+0x43a>
  1038b0:	62c3      	str	r3, [r0, #44]	; 0x2c
  1038b2:	4641      	mov	r1, r8
  1038b4:	6b0a      	ldr	r2, [r1, #48]	; 0x30
  1038b6:	4293      	cmp	r3, r2
  1038b8:	d800      	bhi.n	1038bc <_malloc_r+0x444>
  1038ba:	e702      	b.n	1036c2 <_malloc_r+0x24a>
  1038bc:	630b      	str	r3, [r1, #48]	; 0x30
  1038be:	e700      	b.n	1036c2 <_malloc_r+0x24a>
  1038c0:	22aa      	movs	r2, #170	; 0xaa
  1038c2:	0052      	lsls	r2, r2, #1
  1038c4:	4293      	cmp	r3, r2
  1038c6:	d80f      	bhi.n	1038e8 <_malloc_r+0x470>
  1038c8:	0beb      	lsrs	r3, r5, #15
  1038ca:	3377      	adds	r3, #119	; 0x77
  1038cc:	469c      	mov	ip, r3
  1038ce:	00d9      	lsls	r1, r3, #3
  1038d0:	e61f      	b.n	103512 <_malloc_r+0x9a>
  1038d2:	2380      	movs	r3, #128	; 0x80
  1038d4:	015b      	lsls	r3, r3, #5
  1038d6:	e7ba      	b.n	10384e <_malloc_r+0x3d6>
  1038d8:	6872      	ldr	r2, [r6, #4]
  1038da:	1089      	asrs	r1, r1, #2
  1038dc:	2001      	movs	r0, #1
  1038de:	4088      	lsls	r0, r1
  1038e0:	4310      	orrs	r0, r2
  1038e2:	6070      	str	r0, [r6, #4]
  1038e4:	1c1a      	adds	r2, r3, #0
  1038e6:	e72e      	b.n	103746 <_malloc_r+0x2ce>
  1038e8:	4a27      	ldr	r2, [pc, #156]	; (103988 <_malloc_r+0x510>)
  1038ea:	4293      	cmp	r3, r2
  1038ec:	d810      	bhi.n	103910 <_malloc_r+0x498>
  1038ee:	0cab      	lsrs	r3, r5, #18
  1038f0:	337c      	adds	r3, #124	; 0x7c
  1038f2:	469c      	mov	ip, r3
  1038f4:	00d9      	lsls	r1, r3, #3
  1038f6:	e60c      	b.n	103512 <_malloc_r+0x9a>
  1038f8:	2b54      	cmp	r3, #84	; 0x54
  1038fa:	d80e      	bhi.n	10391a <_malloc_r+0x4a2>
  1038fc:	0b11      	lsrs	r1, r2, #12
  1038fe:	316e      	adds	r1, #110	; 0x6e
  103900:	00c8      	lsls	r0, r1, #3
  103902:	e708      	b.n	103716 <_malloc_r+0x29e>
  103904:	2301      	movs	r3, #1
  103906:	2100      	movs	r1, #0
  103908:	6053      	str	r3, [r2, #4]
  10390a:	464c      	mov	r4, r9
  10390c:	468a      	mov	sl, r1
  10390e:	e6dd      	b.n	1036cc <_malloc_r+0x254>
  103910:	21fc      	movs	r1, #252	; 0xfc
  103912:	227e      	movs	r2, #126	; 0x7e
  103914:	0089      	lsls	r1, r1, #2
  103916:	4694      	mov	ip, r2
  103918:	e5fb      	b.n	103512 <_malloc_r+0x9a>
  10391a:	21aa      	movs	r1, #170	; 0xaa
  10391c:	0049      	lsls	r1, r1, #1
  10391e:	428b      	cmp	r3, r1
  103920:	d81d      	bhi.n	10395e <_malloc_r+0x4e6>
  103922:	0bd1      	lsrs	r1, r2, #15
  103924:	3177      	adds	r1, #119	; 0x77
  103926:	00c8      	lsls	r0, r1, #3
  103928:	e6f5      	b.n	103716 <_malloc_r+0x29e>
  10392a:	0511      	lsls	r1, r2, #20
  10392c:	d000      	beq.n	103930 <_malloc_r+0x4b8>
  10392e:	e77b      	b.n	103828 <_malloc_r+0x3b0>
  103930:	9901      	ldr	r1, [sp, #4]
  103932:	1c08      	adds	r0, r1, #0
  103934:	68b2      	ldr	r2, [r6, #8]
  103936:	4458      	add	r0, fp
  103938:	2101      	movs	r1, #1
  10393a:	4301      	orrs	r1, r0
  10393c:	6051      	str	r1, [r2, #4]
  10393e:	e7b3      	b.n	1038a8 <_malloc_r+0x430>
  103940:	2300      	movs	r3, #0
  103942:	2001      	movs	r0, #1
  103944:	469a      	mov	sl, r3
  103946:	e794      	b.n	103872 <_malloc_r+0x3fa>
  103948:	4649      	mov	r1, r9
  10394a:	6081      	str	r1, [r0, #8]
  10394c:	e776      	b.n	10383c <_malloc_r+0x3c4>
  10394e:	1c21      	adds	r1, r4, #0
  103950:	3108      	adds	r1, #8
  103952:	1c38      	adds	r0, r7, #0
  103954:	f7ff f9f2 	bl	102d3c <_free_r>
  103958:	4642      	mov	r2, r8
  10395a:	6853      	ldr	r3, [r2, #4]
  10395c:	e7a4      	b.n	1038a8 <_malloc_r+0x430>
  10395e:	490a      	ldr	r1, [pc, #40]	; (103988 <_malloc_r+0x510>)
  103960:	428b      	cmp	r3, r1
  103962:	d80b      	bhi.n	10397c <_malloc_r+0x504>
  103964:	0c91      	lsrs	r1, r2, #18
  103966:	317c      	adds	r1, #124	; 0x7c
  103968:	00c8      	lsls	r0, r1, #3
  10396a:	e6d4      	b.n	103716 <_malloc_r+0x29e>
  10396c:	6873      	ldr	r3, [r6, #4]
  10396e:	438b      	bics	r3, r1
  103970:	6073      	str	r3, [r6, #4]
  103972:	e715      	b.n	1037a0 <_malloc_r+0x328>
  103974:	2204      	movs	r2, #4
  103976:	4491      	add	r9, r2
  103978:	0049      	lsls	r1, r1, #1
  10397a:	e718      	b.n	1037ae <_malloc_r+0x336>
  10397c:	20fc      	movs	r0, #252	; 0xfc
  10397e:	0080      	lsls	r0, r0, #2
  103980:	217e      	movs	r1, #126	; 0x7e
  103982:	e6c8      	b.n	103716 <_malloc_r+0x29e>
  103984:	00001008 	.word	0x00001008
  103988:	00000554 	.word	0x00000554

0010398c <memchr>:
  10398c:	b5f0      	push	{r4, r5, r6, r7, lr}
  10398e:	0609      	lsls	r1, r1, #24
  103990:	0e09      	lsrs	r1, r1, #24
  103992:	0783      	lsls	r3, r0, #30
  103994:	d042      	beq.n	103a1c <memchr+0x90>
  103996:	2300      	movs	r3, #0
  103998:	2a00      	cmp	r2, #0
  10399a:	d022      	beq.n	1039e2 <memchr+0x56>
  10399c:	7804      	ldrb	r4, [r0, #0]
  10399e:	1c03      	adds	r3, r0, #0
  1039a0:	428c      	cmp	r4, r1
  1039a2:	d01e      	beq.n	1039e2 <memchr+0x56>
  1039a4:	3a01      	subs	r2, #1
  1039a6:	2503      	movs	r5, #3
  1039a8:	e006      	b.n	1039b8 <memchr+0x2c>
  1039aa:	2a00      	cmp	r2, #0
  1039ac:	d018      	beq.n	1039e0 <memchr+0x54>
  1039ae:	7844      	ldrb	r4, [r0, #1]
  1039b0:	3a01      	subs	r2, #1
  1039b2:	1c18      	adds	r0, r3, #0
  1039b4:	428c      	cmp	r4, r1
  1039b6:	d014      	beq.n	1039e2 <memchr+0x56>
  1039b8:	1c43      	adds	r3, r0, #1
  1039ba:	422b      	tst	r3, r5
  1039bc:	d1f5      	bne.n	1039aa <memchr+0x1e>
  1039be:	2a03      	cmp	r2, #3
  1039c0:	d813      	bhi.n	1039ea <memchr+0x5e>
  1039c2:	2a00      	cmp	r2, #0
  1039c4:	d00c      	beq.n	1039e0 <memchr+0x54>
  1039c6:	7818      	ldrb	r0, [r3, #0]
  1039c8:	4288      	cmp	r0, r1
  1039ca:	d00a      	beq.n	1039e2 <memchr+0x56>
  1039cc:	3a01      	subs	r2, #1
  1039ce:	189a      	adds	r2, r3, r2
  1039d0:	e004      	b.n	1039dc <memchr+0x50>
  1039d2:	1c58      	adds	r0, r3, #1
  1039d4:	785b      	ldrb	r3, [r3, #1]
  1039d6:	428b      	cmp	r3, r1
  1039d8:	d01c      	beq.n	103a14 <memchr+0x88>
  1039da:	1c03      	adds	r3, r0, #0
  1039dc:	4293      	cmp	r3, r2
  1039de:	d1f8      	bne.n	1039d2 <memchr+0x46>
  1039e0:	2300      	movs	r3, #0
  1039e2:	1c18      	adds	r0, r3, #0
  1039e4:	bcf0      	pop	{r4, r5, r6, r7}
  1039e6:	bc02      	pop	{r1}
  1039e8:	4708      	bx	r1
  1039ea:	020f      	lsls	r7, r1, #8
  1039ec:	430f      	orrs	r7, r1
  1039ee:	4d0c      	ldr	r5, [pc, #48]	; (103a20 <memchr+0x94>)
  1039f0:	0438      	lsls	r0, r7, #16
  1039f2:	4307      	orrs	r7, r0
  1039f4:	46ac      	mov	ip, r5
  1039f6:	1c1c      	adds	r4, r3, #0
  1039f8:	6820      	ldr	r0, [r4, #0]
  1039fa:	4e0a      	ldr	r6, [pc, #40]	; (103a24 <memchr+0x98>)
  1039fc:	4078      	eors	r0, r7
  1039fe:	1985      	adds	r5, r0, r6
  103a00:	4385      	bics	r5, r0
  103a02:	1c28      	adds	r0, r5, #0
  103a04:	4665      	mov	r5, ip
  103a06:	3304      	adds	r3, #4
  103a08:	4228      	tst	r0, r5
  103a0a:	d105      	bne.n	103a18 <memchr+0x8c>
  103a0c:	3a04      	subs	r2, #4
  103a0e:	2a03      	cmp	r2, #3
  103a10:	d8f1      	bhi.n	1039f6 <memchr+0x6a>
  103a12:	e7d6      	b.n	1039c2 <memchr+0x36>
  103a14:	1c03      	adds	r3, r0, #0
  103a16:	e7e4      	b.n	1039e2 <memchr+0x56>
  103a18:	1c23      	adds	r3, r4, #0
  103a1a:	e7d2      	b.n	1039c2 <memchr+0x36>
  103a1c:	1c03      	adds	r3, r0, #0
  103a1e:	e7ce      	b.n	1039be <memchr+0x32>
  103a20:	80808080 	.word	0x80808080
  103a24:	fefefeff 	.word	0xfefefeff

00103a28 <memcpy>:
  103a28:	b5f0      	push	{r4, r5, r6, r7, lr}
  103a2a:	1c05      	adds	r5, r0, #0
  103a2c:	2a0f      	cmp	r2, #15
  103a2e:	d92f      	bls.n	103a90 <memcpy+0x68>
  103a30:	1c0b      	adds	r3, r1, #0
  103a32:	4303      	orrs	r3, r0
  103a34:	1c05      	adds	r5, r0, #0
  103a36:	079c      	lsls	r4, r3, #30
  103a38:	d12c      	bne.n	103a94 <memcpy+0x6c>
  103a3a:	1c0c      	adds	r4, r1, #0
  103a3c:	1c03      	adds	r3, r0, #0
  103a3e:	1c15      	adds	r5, r2, #0
  103a40:	6826      	ldr	r6, [r4, #0]
  103a42:	601e      	str	r6, [r3, #0]
  103a44:	6866      	ldr	r6, [r4, #4]
  103a46:	605e      	str	r6, [r3, #4]
  103a48:	68a6      	ldr	r6, [r4, #8]
  103a4a:	609e      	str	r6, [r3, #8]
  103a4c:	68e6      	ldr	r6, [r4, #12]
  103a4e:	3d10      	subs	r5, #16
  103a50:	60de      	str	r6, [r3, #12]
  103a52:	3410      	adds	r4, #16
  103a54:	3310      	adds	r3, #16
  103a56:	2d0f      	cmp	r5, #15
  103a58:	d8f2      	bhi.n	103a40 <memcpy+0x18>
  103a5a:	1c13      	adds	r3, r2, #0
  103a5c:	3b10      	subs	r3, #16
  103a5e:	091b      	lsrs	r3, r3, #4
  103a60:	3301      	adds	r3, #1
  103a62:	011b      	lsls	r3, r3, #4
  103a64:	18c5      	adds	r5, r0, r3
  103a66:	18c9      	adds	r1, r1, r3
  103a68:	230f      	movs	r3, #15
  103a6a:	401a      	ands	r2, r3
  103a6c:	2a03      	cmp	r2, #3
  103a6e:	d90f      	bls.n	103a90 <memcpy+0x68>
  103a70:	1c0e      	adds	r6, r1, #0
  103a72:	1c2c      	adds	r4, r5, #0
  103a74:	1c13      	adds	r3, r2, #0
  103a76:	ce80      	ldmia	r6!, {r7}
  103a78:	3b04      	subs	r3, #4
  103a7a:	c480      	stmia	r4!, {r7}
  103a7c:	2b03      	cmp	r3, #3
  103a7e:	d8fa      	bhi.n	103a76 <memcpy+0x4e>
  103a80:	1f13      	subs	r3, r2, #4
  103a82:	089b      	lsrs	r3, r3, #2
  103a84:	3301      	adds	r3, #1
  103a86:	009b      	lsls	r3, r3, #2
  103a88:	2403      	movs	r4, #3
  103a8a:	4022      	ands	r2, r4
  103a8c:	18c9      	adds	r1, r1, r3
  103a8e:	18ed      	adds	r5, r5, r3
  103a90:	2a00      	cmp	r2, #0
  103a92:	d005      	beq.n	103aa0 <memcpy+0x78>
  103a94:	2300      	movs	r3, #0
  103a96:	5ccc      	ldrb	r4, [r1, r3]
  103a98:	54ec      	strb	r4, [r5, r3]
  103a9a:	3301      	adds	r3, #1
  103a9c:	4293      	cmp	r3, r2
  103a9e:	d1fa      	bne.n	103a96 <memcpy+0x6e>
  103aa0:	bcf0      	pop	{r4, r5, r6, r7}
  103aa2:	bc02      	pop	{r1}
  103aa4:	4708      	bx	r1
  103aa6:	46c0      	nop			; (mov r8, r8)

00103aa8 <memmove>:
  103aa8:	b5f0      	push	{r4, r5, r6, r7, lr}
  103aaa:	4288      	cmp	r0, r1
  103aac:	d914      	bls.n	103ad8 <memmove+0x30>
  103aae:	188d      	adds	r5, r1, r2
  103ab0:	42a8      	cmp	r0, r5
  103ab2:	d211      	bcs.n	103ad8 <memmove+0x30>
  103ab4:	2a00      	cmp	r2, #0
  103ab6:	d00c      	beq.n	103ad2 <memmove+0x2a>
  103ab8:	4253      	negs	r3, r2
  103aba:	1884      	adds	r4, r0, r2
  103abc:	18ed      	adds	r5, r5, r3
  103abe:	18e4      	adds	r4, r4, r3
  103ac0:	1953      	adds	r3, r2, r5
  103ac2:	3b01      	subs	r3, #1
  103ac4:	7819      	ldrb	r1, [r3, #0]
  103ac6:	1913      	adds	r3, r2, r4
  103ac8:	3b01      	subs	r3, #1
  103aca:	3a01      	subs	r2, #1
  103acc:	7019      	strb	r1, [r3, #0]
  103ace:	2a00      	cmp	r2, #0
  103ad0:	d1f6      	bne.n	103ac0 <memmove+0x18>
  103ad2:	bcf0      	pop	{r4, r5, r6, r7}
  103ad4:	bc02      	pop	{r1}
  103ad6:	4708      	bx	r1
  103ad8:	1c05      	adds	r5, r0, #0
  103ada:	2a0f      	cmp	r2, #15
  103adc:	d92f      	bls.n	103b3e <memmove+0x96>
  103ade:	1c0b      	adds	r3, r1, #0
  103ae0:	4303      	orrs	r3, r0
  103ae2:	1c05      	adds	r5, r0, #0
  103ae4:	079c      	lsls	r4, r3, #30
  103ae6:	d12c      	bne.n	103b42 <memmove+0x9a>
  103ae8:	1c0c      	adds	r4, r1, #0
  103aea:	1c03      	adds	r3, r0, #0
  103aec:	1c15      	adds	r5, r2, #0
  103aee:	6826      	ldr	r6, [r4, #0]
  103af0:	601e      	str	r6, [r3, #0]
  103af2:	6866      	ldr	r6, [r4, #4]
  103af4:	605e      	str	r6, [r3, #4]
  103af6:	68a6      	ldr	r6, [r4, #8]
  103af8:	609e      	str	r6, [r3, #8]
  103afa:	68e6      	ldr	r6, [r4, #12]
  103afc:	3d10      	subs	r5, #16
  103afe:	60de      	str	r6, [r3, #12]
  103b00:	3410      	adds	r4, #16
  103b02:	3310      	adds	r3, #16
  103b04:	2d0f      	cmp	r5, #15
  103b06:	d8f2      	bhi.n	103aee <memmove+0x46>
  103b08:	1c13      	adds	r3, r2, #0
  103b0a:	3b10      	subs	r3, #16
  103b0c:	091b      	lsrs	r3, r3, #4
  103b0e:	3301      	adds	r3, #1
  103b10:	011b      	lsls	r3, r3, #4
  103b12:	18c5      	adds	r5, r0, r3
  103b14:	18c9      	adds	r1, r1, r3
  103b16:	230f      	movs	r3, #15
  103b18:	401a      	ands	r2, r3
  103b1a:	2a03      	cmp	r2, #3
  103b1c:	d90f      	bls.n	103b3e <memmove+0x96>
  103b1e:	1c0e      	adds	r6, r1, #0
  103b20:	1c2c      	adds	r4, r5, #0
  103b22:	1c13      	adds	r3, r2, #0
  103b24:	ce80      	ldmia	r6!, {r7}
  103b26:	3b04      	subs	r3, #4
  103b28:	c480      	stmia	r4!, {r7}
  103b2a:	2b03      	cmp	r3, #3
  103b2c:	d8fa      	bhi.n	103b24 <memmove+0x7c>
  103b2e:	1f13      	subs	r3, r2, #4
  103b30:	089b      	lsrs	r3, r3, #2
  103b32:	3301      	adds	r3, #1
  103b34:	009b      	lsls	r3, r3, #2
  103b36:	2403      	movs	r4, #3
  103b38:	4022      	ands	r2, r4
  103b3a:	18c9      	adds	r1, r1, r3
  103b3c:	18ed      	adds	r5, r5, r3
  103b3e:	2a00      	cmp	r2, #0
  103b40:	d0c7      	beq.n	103ad2 <memmove+0x2a>
  103b42:	2300      	movs	r3, #0
  103b44:	5ccc      	ldrb	r4, [r1, r3]
  103b46:	54ec      	strb	r4, [r5, r3]
  103b48:	3301      	adds	r3, #1
  103b4a:	4293      	cmp	r3, r2
  103b4c:	d1fa      	bne.n	103b44 <memmove+0x9c>
  103b4e:	e7c0      	b.n	103ad2 <memmove+0x2a>

00103b50 <memset>:
  103b50:	b570      	push	{r4, r5, r6, lr}
  103b52:	0783      	lsls	r3, r0, #30
  103b54:	d046      	beq.n	103be4 <memset+0x94>
  103b56:	2a00      	cmp	r2, #0
  103b58:	d041      	beq.n	103bde <memset+0x8e>
  103b5a:	060e      	lsls	r6, r1, #24
  103b5c:	3a01      	subs	r2, #1
  103b5e:	0e36      	lsrs	r6, r6, #24
  103b60:	1c03      	adds	r3, r0, #0
  103b62:	2503      	movs	r5, #3
  103b64:	e003      	b.n	103b6e <memset+0x1e>
  103b66:	1e54      	subs	r4, r2, #1
  103b68:	2a00      	cmp	r2, #0
  103b6a:	d038      	beq.n	103bde <memset+0x8e>
  103b6c:	1c22      	adds	r2, r4, #0
  103b6e:	701e      	strb	r6, [r3, #0]
  103b70:	3301      	adds	r3, #1
  103b72:	422b      	tst	r3, r5
  103b74:	d1f7      	bne.n	103b66 <memset+0x16>
  103b76:	2a03      	cmp	r2, #3
  103b78:	d928      	bls.n	103bcc <memset+0x7c>
  103b7a:	25ff      	movs	r5, #255	; 0xff
  103b7c:	400d      	ands	r5, r1
  103b7e:	022c      	lsls	r4, r5, #8
  103b80:	4325      	orrs	r5, r4
  103b82:	042c      	lsls	r4, r5, #16
  103b84:	4325      	orrs	r5, r4
  103b86:	2a0f      	cmp	r2, #15
  103b88:	d913      	bls.n	103bb2 <memset+0x62>
  103b8a:	1c1c      	adds	r4, r3, #0
  103b8c:	1c16      	adds	r6, r2, #0
  103b8e:	3e10      	subs	r6, #16
  103b90:	6025      	str	r5, [r4, #0]
  103b92:	6065      	str	r5, [r4, #4]
  103b94:	60a5      	str	r5, [r4, #8]
  103b96:	60e5      	str	r5, [r4, #12]
  103b98:	3410      	adds	r4, #16
  103b9a:	2e0f      	cmp	r6, #15
  103b9c:	d8f7      	bhi.n	103b8e <memset+0x3e>
  103b9e:	1c14      	adds	r4, r2, #0
  103ba0:	3c10      	subs	r4, #16
  103ba2:	0924      	lsrs	r4, r4, #4
  103ba4:	3401      	adds	r4, #1
  103ba6:	0124      	lsls	r4, r4, #4
  103ba8:	191b      	adds	r3, r3, r4
  103baa:	240f      	movs	r4, #15
  103bac:	4022      	ands	r2, r4
  103bae:	2a03      	cmp	r2, #3
  103bb0:	d90c      	bls.n	103bcc <memset+0x7c>
  103bb2:	1c1e      	adds	r6, r3, #0
  103bb4:	1c14      	adds	r4, r2, #0
  103bb6:	3c04      	subs	r4, #4
  103bb8:	c620      	stmia	r6!, {r5}
  103bba:	2c03      	cmp	r4, #3
  103bbc:	d8fb      	bhi.n	103bb6 <memset+0x66>
  103bbe:	1f14      	subs	r4, r2, #4
  103bc0:	08a4      	lsrs	r4, r4, #2
  103bc2:	3401      	adds	r4, #1
  103bc4:	00a4      	lsls	r4, r4, #2
  103bc6:	2503      	movs	r5, #3
  103bc8:	402a      	ands	r2, r5
  103bca:	191b      	adds	r3, r3, r4
  103bcc:	2a00      	cmp	r2, #0
  103bce:	d006      	beq.n	103bde <memset+0x8e>
  103bd0:	0609      	lsls	r1, r1, #24
  103bd2:	0e09      	lsrs	r1, r1, #24
  103bd4:	3a01      	subs	r2, #1
  103bd6:	7019      	strb	r1, [r3, #0]
  103bd8:	3301      	adds	r3, #1
  103bda:	2a00      	cmp	r2, #0
  103bdc:	d1fa      	bne.n	103bd4 <memset+0x84>
  103bde:	bc70      	pop	{r4, r5, r6}
  103be0:	bc02      	pop	{r1}
  103be2:	4708      	bx	r1
  103be4:	1c03      	adds	r3, r0, #0
  103be6:	e7c6      	b.n	103b76 <memset+0x26>

00103be8 <__malloc_lock>:
  103be8:	4770      	bx	lr
  103bea:	46c0      	nop			; (mov r8, r8)

00103bec <__malloc_unlock>:
  103bec:	4770      	bx	lr
  103bee:	46c0      	nop			; (mov r8, r8)

00103bf0 <_realloc_r>:
  103bf0:	b5f0      	push	{r4, r5, r6, r7, lr}
  103bf2:	465f      	mov	r7, fp
  103bf4:	4656      	mov	r6, sl
  103bf6:	464d      	mov	r5, r9
  103bf8:	4644      	mov	r4, r8
  103bfa:	b4f0      	push	{r4, r5, r6, r7}
  103bfc:	b083      	sub	sp, #12
  103bfe:	4680      	mov	r8, r0
  103c00:	1c0c      	adds	r4, r1, #0
  103c02:	1c17      	adds	r7, r2, #0
  103c04:	2900      	cmp	r1, #0
  103c06:	d100      	bne.n	103c0a <_realloc_r+0x1a>
  103c08:	e0fb      	b.n	103e02 <_realloc_r+0x212>
  103c0a:	1c26      	adds	r6, r4, #0
  103c0c:	1c3d      	adds	r5, r7, #0
  103c0e:	3e08      	subs	r6, #8
  103c10:	350b      	adds	r5, #11
  103c12:	f7ff ffe9 	bl	103be8 <__malloc_lock>
  103c16:	6873      	ldr	r3, [r6, #4]
  103c18:	2d16      	cmp	r5, #22
  103c1a:	d900      	bls.n	103c1e <_realloc_r+0x2e>
  103c1c:	e07e      	b.n	103d1c <_realloc_r+0x12c>
  103c1e:	2010      	movs	r0, #16
  103c20:	9000      	str	r0, [sp, #0]
  103c22:	2200      	movs	r2, #0
  103c24:	2510      	movs	r5, #16
  103c26:	42bd      	cmp	r5, r7
  103c28:	d200      	bcs.n	103c2c <_realloc_r+0x3c>
  103c2a:	e0ef      	b.n	103e0c <_realloc_r+0x21c>
  103c2c:	2a00      	cmp	r2, #0
  103c2e:	d000      	beq.n	103c32 <_realloc_r+0x42>
  103c30:	e0ec      	b.n	103e0c <_realloc_r+0x21c>
  103c32:	1c1a      	adds	r2, r3, #0
  103c34:	2003      	movs	r0, #3
  103c36:	9900      	ldr	r1, [sp, #0]
  103c38:	4382      	bics	r2, r0
  103c3a:	4691      	mov	r9, r2
  103c3c:	4692      	mov	sl, r2
  103c3e:	428a      	cmp	r2, r1
  103c40:	da52      	bge.n	103ce8 <_realloc_r+0xf8>
  103c42:	49d2      	ldr	r1, [pc, #840]	; (103f8c <_realloc_r+0x39c>)
  103c44:	6888      	ldr	r0, [r1, #8]
  103c46:	18b2      	adds	r2, r6, r2
  103c48:	4684      	mov	ip, r0
  103c4a:	4290      	cmp	r0, r2
  103c4c:	d100      	bne.n	103c50 <_realloc_r+0x60>
  103c4e:	e0e2      	b.n	103e16 <_realloc_r+0x226>
  103c50:	6850      	ldr	r0, [r2, #4]
  103c52:	2101      	movs	r1, #1
  103c54:	9001      	str	r0, [sp, #4]
  103c56:	4388      	bics	r0, r1
  103c58:	4683      	mov	fp, r0
  103c5a:	4493      	add	fp, r2
  103c5c:	468a      	mov	sl, r1
  103c5e:	4659      	mov	r1, fp
  103c60:	6848      	ldr	r0, [r1, #4]
  103c62:	4651      	mov	r1, sl
  103c64:	4208      	tst	r0, r1
  103c66:	d05e      	beq.n	103d26 <_realloc_r+0x136>
  103c68:	2000      	movs	r0, #0
  103c6a:	2200      	movs	r2, #0
  103c6c:	07d9      	lsls	r1, r3, #31
  103c6e:	d500      	bpl.n	103c72 <_realloc_r+0x82>
  103c70:	e077      	b.n	103d62 <_realloc_r+0x172>
  103c72:	6833      	ldr	r3, [r6, #0]
  103c74:	1af3      	subs	r3, r6, r3
  103c76:	469b      	mov	fp, r3
  103c78:	685b      	ldr	r3, [r3, #4]
  103c7a:	2103      	movs	r1, #3
  103c7c:	438b      	bics	r3, r1
  103c7e:	444b      	add	r3, r9
  103c80:	2a00      	cmp	r2, #0
  103c82:	d100      	bne.n	103c86 <_realloc_r+0x96>
  103c84:	e093      	b.n	103dae <_realloc_r+0x1be>
  103c86:	4562      	cmp	r2, ip
  103c88:	d100      	bne.n	103c8c <_realloc_r+0x9c>
  103c8a:	e0fc      	b.n	103e86 <_realloc_r+0x296>
  103c8c:	9301      	str	r3, [sp, #4]
  103c8e:	181b      	adds	r3, r3, r0
  103c90:	469a      	mov	sl, r3
  103c92:	9b00      	ldr	r3, [sp, #0]
  103c94:	4553      	cmp	r3, sl
  103c96:	dd00      	ble.n	103c9a <_realloc_r+0xaa>
  103c98:	e08a      	b.n	103db0 <_realloc_r+0x1c0>
  103c9a:	68d3      	ldr	r3, [r2, #12]
  103c9c:	6892      	ldr	r2, [r2, #8]
  103c9e:	60d3      	str	r3, [r2, #12]
  103ca0:	609a      	str	r2, [r3, #8]
  103ca2:	4658      	mov	r0, fp
  103ca4:	6882      	ldr	r2, [r0, #8]
  103ca6:	68c3      	ldr	r3, [r0, #12]
  103ca8:	60d3      	str	r3, [r2, #12]
  103caa:	609a      	str	r2, [r3, #8]
  103cac:	464a      	mov	r2, r9
  103cae:	465e      	mov	r6, fp
  103cb0:	3a04      	subs	r2, #4
  103cb2:	3608      	adds	r6, #8
  103cb4:	2a24      	cmp	r2, #36	; 0x24
  103cb6:	d900      	bls.n	103cba <_realloc_r+0xca>
  103cb8:	e12c      	b.n	103f14 <_realloc_r+0x324>
  103cba:	1c33      	adds	r3, r6, #0
  103cbc:	2a13      	cmp	r2, #19
  103cbe:	d909      	bls.n	103cd4 <_realloc_r+0xe4>
  103cc0:	6823      	ldr	r3, [r4, #0]
  103cc2:	6083      	str	r3, [r0, #8]
  103cc4:	6863      	ldr	r3, [r4, #4]
  103cc6:	60c3      	str	r3, [r0, #12]
  103cc8:	2a1b      	cmp	r2, #27
  103cca:	d900      	bls.n	103cce <_realloc_r+0xde>
  103ccc:	e12b      	b.n	103f26 <_realloc_r+0x336>
  103cce:	465b      	mov	r3, fp
  103cd0:	3310      	adds	r3, #16
  103cd2:	3408      	adds	r4, #8
  103cd4:	6822      	ldr	r2, [r4, #0]
  103cd6:	601a      	str	r2, [r3, #0]
  103cd8:	6862      	ldr	r2, [r4, #4]
  103cda:	605a      	str	r2, [r3, #4]
  103cdc:	68a2      	ldr	r2, [r4, #8]
  103cde:	609a      	str	r2, [r3, #8]
  103ce0:	4658      	mov	r0, fp
  103ce2:	6843      	ldr	r3, [r0, #4]
  103ce4:	1c34      	adds	r4, r6, #0
  103ce6:	465e      	mov	r6, fp
  103ce8:	4650      	mov	r0, sl
  103cea:	1b42      	subs	r2, r0, r5
  103cec:	2a0f      	cmp	r2, #15
  103cee:	d827      	bhi.n	103d40 <_realloc_r+0x150>
  103cf0:	2201      	movs	r2, #1
  103cf2:	4013      	ands	r3, r2
  103cf4:	4303      	orrs	r3, r0
  103cf6:	6073      	str	r3, [r6, #4]
  103cf8:	4456      	add	r6, sl
  103cfa:	6873      	ldr	r3, [r6, #4]
  103cfc:	431a      	orrs	r2, r3
  103cfe:	6072      	str	r2, [r6, #4]
  103d00:	4640      	mov	r0, r8
  103d02:	f7ff ff73 	bl	103bec <__malloc_unlock>
  103d06:	1c27      	adds	r7, r4, #0
  103d08:	b003      	add	sp, #12
  103d0a:	1c38      	adds	r0, r7, #0
  103d0c:	bc3c      	pop	{r2, r3, r4, r5}
  103d0e:	4690      	mov	r8, r2
  103d10:	4699      	mov	r9, r3
  103d12:	46a2      	mov	sl, r4
  103d14:	46ab      	mov	fp, r5
  103d16:	bcf0      	pop	{r4, r5, r6, r7}
  103d18:	bc02      	pop	{r1}
  103d1a:	4708      	bx	r1
  103d1c:	2207      	movs	r2, #7
  103d1e:	4395      	bics	r5, r2
  103d20:	9500      	str	r5, [sp, #0]
  103d22:	0fea      	lsrs	r2, r5, #31
  103d24:	e77f      	b.n	103c26 <_realloc_r+0x36>
  103d26:	9801      	ldr	r0, [sp, #4]
  103d28:	2103      	movs	r1, #3
  103d2a:	4388      	bics	r0, r1
  103d2c:	4682      	mov	sl, r0
  103d2e:	9900      	ldr	r1, [sp, #0]
  103d30:	44ca      	add	sl, r9
  103d32:	4551      	cmp	r1, sl
  103d34:	dc9a      	bgt.n	103c6c <_realloc_r+0x7c>
  103d36:	68d1      	ldr	r1, [r2, #12]
  103d38:	6892      	ldr	r2, [r2, #8]
  103d3a:	60d1      	str	r1, [r2, #12]
  103d3c:	608a      	str	r2, [r1, #8]
  103d3e:	e7d3      	b.n	103ce8 <_realloc_r+0xf8>
  103d40:	2001      	movs	r0, #1
  103d42:	4003      	ands	r3, r0
  103d44:	1971      	adds	r1, r6, r5
  103d46:	431d      	orrs	r5, r3
  103d48:	1c13      	adds	r3, r2, #0
  103d4a:	4303      	orrs	r3, r0
  103d4c:	6075      	str	r5, [r6, #4]
  103d4e:	604b      	str	r3, [r1, #4]
  103d50:	188a      	adds	r2, r1, r2
  103d52:	6853      	ldr	r3, [r2, #4]
  103d54:	4318      	orrs	r0, r3
  103d56:	6050      	str	r0, [r2, #4]
  103d58:	3108      	adds	r1, #8
  103d5a:	4640      	mov	r0, r8
  103d5c:	f7fe ffee 	bl	102d3c <_free_r>
  103d60:	e7ce      	b.n	103d00 <_realloc_r+0x110>
  103d62:	1c39      	adds	r1, r7, #0
  103d64:	4640      	mov	r0, r8
  103d66:	f7ff fb87 	bl	103478 <_malloc_r>
  103d6a:	1e07      	subs	r7, r0, #0
  103d6c:	d01b      	beq.n	103da6 <_realloc_r+0x1b6>
  103d6e:	6873      	ldr	r3, [r6, #4]
  103d70:	2101      	movs	r1, #1
  103d72:	1c18      	adds	r0, r3, #0
  103d74:	1c3a      	adds	r2, r7, #0
  103d76:	4388      	bics	r0, r1
  103d78:	3a08      	subs	r2, #8
  103d7a:	1831      	adds	r1, r6, r0
  103d7c:	428a      	cmp	r2, r1
  103d7e:	d100      	bne.n	103d82 <_realloc_r+0x192>
  103d80:	e0c2      	b.n	103f08 <_realloc_r+0x318>
  103d82:	464a      	mov	r2, r9
  103d84:	3a04      	subs	r2, #4
  103d86:	2a24      	cmp	r2, #36	; 0x24
  103d88:	d878      	bhi.n	103e7c <_realloc_r+0x28c>
  103d8a:	2a13      	cmp	r2, #19
  103d8c:	d860      	bhi.n	103e50 <_realloc_r+0x260>
  103d8e:	1c3b      	adds	r3, r7, #0
  103d90:	1c22      	adds	r2, r4, #0
  103d92:	6811      	ldr	r1, [r2, #0]
  103d94:	6019      	str	r1, [r3, #0]
  103d96:	6851      	ldr	r1, [r2, #4]
  103d98:	6059      	str	r1, [r3, #4]
  103d9a:	6892      	ldr	r2, [r2, #8]
  103d9c:	609a      	str	r2, [r3, #8]
  103d9e:	4640      	mov	r0, r8
  103da0:	1c21      	adds	r1, r4, #0
  103da2:	f7fe ffcb 	bl	102d3c <_free_r>
  103da6:	4640      	mov	r0, r8
  103da8:	f7ff ff20 	bl	103bec <__malloc_unlock>
  103dac:	e7ac      	b.n	103d08 <_realloc_r+0x118>
  103dae:	9301      	str	r3, [sp, #4]
  103db0:	9b00      	ldr	r3, [sp, #0]
  103db2:	9801      	ldr	r0, [sp, #4]
  103db4:	4283      	cmp	r3, r0
  103db6:	dcd4      	bgt.n	103d62 <_realloc_r+0x172>
  103db8:	4659      	mov	r1, fp
  103dba:	688a      	ldr	r2, [r1, #8]
  103dbc:	68cb      	ldr	r3, [r1, #12]
  103dbe:	60d3      	str	r3, [r2, #12]
  103dc0:	609a      	str	r2, [r3, #8]
  103dc2:	464a      	mov	r2, r9
  103dc4:	465e      	mov	r6, fp
  103dc6:	3a04      	subs	r2, #4
  103dc8:	3608      	adds	r6, #8
  103dca:	2a24      	cmp	r2, #36	; 0x24
  103dcc:	d84b      	bhi.n	103e66 <_realloc_r+0x276>
  103dce:	1c33      	adds	r3, r6, #0
  103dd0:	2a13      	cmp	r2, #19
  103dd2:	d909      	bls.n	103de8 <_realloc_r+0x1f8>
  103dd4:	6823      	ldr	r3, [r4, #0]
  103dd6:	608b      	str	r3, [r1, #8]
  103dd8:	6863      	ldr	r3, [r4, #4]
  103dda:	60cb      	str	r3, [r1, #12]
  103ddc:	2a1b      	cmp	r2, #27
  103dde:	d900      	bls.n	103de2 <_realloc_r+0x1f2>
  103de0:	e0b4      	b.n	103f4c <_realloc_r+0x35c>
  103de2:	465b      	mov	r3, fp
  103de4:	3310      	adds	r3, #16
  103de6:	3408      	adds	r4, #8
  103de8:	6822      	ldr	r2, [r4, #0]
  103dea:	601a      	str	r2, [r3, #0]
  103dec:	6862      	ldr	r2, [r4, #4]
  103dee:	605a      	str	r2, [r3, #4]
  103df0:	68a2      	ldr	r2, [r4, #8]
  103df2:	9801      	ldr	r0, [sp, #4]
  103df4:	609a      	str	r2, [r3, #8]
  103df6:	465a      	mov	r2, fp
  103df8:	1c34      	adds	r4, r6, #0
  103dfa:	6853      	ldr	r3, [r2, #4]
  103dfc:	4682      	mov	sl, r0
  103dfe:	465e      	mov	r6, fp
  103e00:	e772      	b.n	103ce8 <_realloc_r+0xf8>
  103e02:	1c11      	adds	r1, r2, #0
  103e04:	f7ff fb38 	bl	103478 <_malloc_r>
  103e08:	1c07      	adds	r7, r0, #0
  103e0a:	e77d      	b.n	103d08 <_realloc_r+0x118>
  103e0c:	230c      	movs	r3, #12
  103e0e:	4641      	mov	r1, r8
  103e10:	600b      	str	r3, [r1, #0]
  103e12:	2700      	movs	r7, #0
  103e14:	e778      	b.n	103d08 <_realloc_r+0x118>
  103e16:	6842      	ldr	r2, [r0, #4]
  103e18:	2103      	movs	r1, #3
  103e1a:	1c10      	adds	r0, r2, #0
  103e1c:	4388      	bics	r0, r1
  103e1e:	4683      	mov	fp, r0
  103e20:	2110      	movs	r1, #16
  103e22:	44cb      	add	fp, r9
  103e24:	1949      	adds	r1, r1, r5
  103e26:	4662      	mov	r2, ip
  103e28:	458b      	cmp	fp, r1
  103e2a:	da00      	bge.n	103e2e <_realloc_r+0x23e>
  103e2c:	e71e      	b.n	103c6c <_realloc_r+0x7c>
  103e2e:	4b57      	ldr	r3, [pc, #348]	; (103f8c <_realloc_r+0x39c>)
  103e30:	1972      	adds	r2, r6, r5
  103e32:	4658      	mov	r0, fp
  103e34:	609a      	str	r2, [r3, #8]
  103e36:	1b41      	subs	r1, r0, r5
  103e38:	2301      	movs	r3, #1
  103e3a:	4319      	orrs	r1, r3
  103e3c:	6051      	str	r1, [r2, #4]
  103e3e:	6872      	ldr	r2, [r6, #4]
  103e40:	4013      	ands	r3, r2
  103e42:	431d      	orrs	r5, r3
  103e44:	6075      	str	r5, [r6, #4]
  103e46:	4640      	mov	r0, r8
  103e48:	f7ff fed0 	bl	103bec <__malloc_unlock>
  103e4c:	1c27      	adds	r7, r4, #0
  103e4e:	e75b      	b.n	103d08 <_realloc_r+0x118>
  103e50:	6823      	ldr	r3, [r4, #0]
  103e52:	603b      	str	r3, [r7, #0]
  103e54:	6863      	ldr	r3, [r4, #4]
  103e56:	607b      	str	r3, [r7, #4]
  103e58:	2a1b      	cmp	r2, #27
  103e5a:	d84a      	bhi.n	103ef2 <_realloc_r+0x302>
  103e5c:	1c3b      	adds	r3, r7, #0
  103e5e:	1c22      	adds	r2, r4, #0
  103e60:	3308      	adds	r3, #8
  103e62:	3208      	adds	r2, #8
  103e64:	e795      	b.n	103d92 <_realloc_r+0x1a2>
  103e66:	1c21      	adds	r1, r4, #0
  103e68:	1c30      	adds	r0, r6, #0
  103e6a:	f7ff fe1d 	bl	103aa8 <memmove>
  103e6e:	9a01      	ldr	r2, [sp, #4]
  103e70:	4659      	mov	r1, fp
  103e72:	1c34      	adds	r4, r6, #0
  103e74:	684b      	ldr	r3, [r1, #4]
  103e76:	4692      	mov	sl, r2
  103e78:	465e      	mov	r6, fp
  103e7a:	e735      	b.n	103ce8 <_realloc_r+0xf8>
  103e7c:	1c38      	adds	r0, r7, #0
  103e7e:	1c21      	adds	r1, r4, #0
  103e80:	f7ff fe12 	bl	103aa8 <memmove>
  103e84:	e78b      	b.n	103d9e <_realloc_r+0x1ae>
  103e86:	9301      	str	r3, [sp, #4]
  103e88:	181b      	adds	r3, r3, r0
  103e8a:	469a      	mov	sl, r3
  103e8c:	1c2b      	adds	r3, r5, #0
  103e8e:	3310      	adds	r3, #16
  103e90:	459a      	cmp	sl, r3
  103e92:	db8d      	blt.n	103db0 <_realloc_r+0x1c0>
  103e94:	4658      	mov	r0, fp
  103e96:	6882      	ldr	r2, [r0, #8]
  103e98:	68c3      	ldr	r3, [r0, #12]
  103e9a:	60d3      	str	r3, [r2, #12]
  103e9c:	609a      	str	r2, [r3, #8]
  103e9e:	464a      	mov	r2, r9
  103ea0:	465f      	mov	r7, fp
  103ea2:	3a04      	subs	r2, #4
  103ea4:	3708      	adds	r7, #8
  103ea6:	2a24      	cmp	r2, #36	; 0x24
  103ea8:	d86b      	bhi.n	103f82 <_realloc_r+0x392>
  103eaa:	1c3b      	adds	r3, r7, #0
  103eac:	2a13      	cmp	r2, #19
  103eae:	d908      	bls.n	103ec2 <_realloc_r+0x2d2>
  103eb0:	6823      	ldr	r3, [r4, #0]
  103eb2:	6083      	str	r3, [r0, #8]
  103eb4:	6863      	ldr	r3, [r4, #4]
  103eb6:	60c3      	str	r3, [r0, #12]
  103eb8:	2a1b      	cmp	r2, #27
  103eba:	d869      	bhi.n	103f90 <_realloc_r+0x3a0>
  103ebc:	465b      	mov	r3, fp
  103ebe:	3310      	adds	r3, #16
  103ec0:	3408      	adds	r4, #8
  103ec2:	6822      	ldr	r2, [r4, #0]
  103ec4:	601a      	str	r2, [r3, #0]
  103ec6:	6862      	ldr	r2, [r4, #4]
  103ec8:	605a      	str	r2, [r3, #4]
  103eca:	68a2      	ldr	r2, [r4, #8]
  103ecc:	609a      	str	r2, [r3, #8]
  103ece:	465b      	mov	r3, fp
  103ed0:	482e      	ldr	r0, [pc, #184]	; (103f8c <_realloc_r+0x39c>)
  103ed2:	195a      	adds	r2, r3, r5
  103ed4:	4651      	mov	r1, sl
  103ed6:	6082      	str	r2, [r0, #8]
  103ed8:	2301      	movs	r3, #1
  103eda:	1b48      	subs	r0, r1, r5
  103edc:	4318      	orrs	r0, r3
  103ede:	6050      	str	r0, [r2, #4]
  103ee0:	4658      	mov	r0, fp
  103ee2:	6842      	ldr	r2, [r0, #4]
  103ee4:	4013      	ands	r3, r2
  103ee6:	431d      	orrs	r5, r3
  103ee8:	6045      	str	r5, [r0, #4]
  103eea:	4640      	mov	r0, r8
  103eec:	f7ff fe7e 	bl	103bec <__malloc_unlock>
  103ef0:	e70a      	b.n	103d08 <_realloc_r+0x118>
  103ef2:	68a3      	ldr	r3, [r4, #8]
  103ef4:	60bb      	str	r3, [r7, #8]
  103ef6:	68e3      	ldr	r3, [r4, #12]
  103ef8:	60fb      	str	r3, [r7, #12]
  103efa:	2a24      	cmp	r2, #36	; 0x24
  103efc:	d01d      	beq.n	103f3a <_realloc_r+0x34a>
  103efe:	1c3b      	adds	r3, r7, #0
  103f00:	1c22      	adds	r2, r4, #0
  103f02:	3310      	adds	r3, #16
  103f04:	3210      	adds	r2, #16
  103f06:	e744      	b.n	103d92 <_realloc_r+0x1a2>
  103f08:	6852      	ldr	r2, [r2, #4]
  103f0a:	2103      	movs	r1, #3
  103f0c:	438a      	bics	r2, r1
  103f0e:	4692      	mov	sl, r2
  103f10:	44ca      	add	sl, r9
  103f12:	e6e9      	b.n	103ce8 <_realloc_r+0xf8>
  103f14:	1c21      	adds	r1, r4, #0
  103f16:	1c30      	adds	r0, r6, #0
  103f18:	f7ff fdc6 	bl	103aa8 <memmove>
  103f1c:	4659      	mov	r1, fp
  103f1e:	1c34      	adds	r4, r6, #0
  103f20:	684b      	ldr	r3, [r1, #4]
  103f22:	465e      	mov	r6, fp
  103f24:	e6e0      	b.n	103ce8 <_realloc_r+0xf8>
  103f26:	68a3      	ldr	r3, [r4, #8]
  103f28:	6103      	str	r3, [r0, #16]
  103f2a:	68e3      	ldr	r3, [r4, #12]
  103f2c:	6143      	str	r3, [r0, #20]
  103f2e:	2a24      	cmp	r2, #36	; 0x24
  103f30:	d017      	beq.n	103f62 <_realloc_r+0x372>
  103f32:	465b      	mov	r3, fp
  103f34:	3318      	adds	r3, #24
  103f36:	3410      	adds	r4, #16
  103f38:	e6cc      	b.n	103cd4 <_realloc_r+0xe4>
  103f3a:	6923      	ldr	r3, [r4, #16]
  103f3c:	613b      	str	r3, [r7, #16]
  103f3e:	6963      	ldr	r3, [r4, #20]
  103f40:	1c22      	adds	r2, r4, #0
  103f42:	617b      	str	r3, [r7, #20]
  103f44:	1c3b      	adds	r3, r7, #0
  103f46:	3318      	adds	r3, #24
  103f48:	3218      	adds	r2, #24
  103f4a:	e722      	b.n	103d92 <_realloc_r+0x1a2>
  103f4c:	68a3      	ldr	r3, [r4, #8]
  103f4e:	610b      	str	r3, [r1, #16]
  103f50:	68e3      	ldr	r3, [r4, #12]
  103f52:	4658      	mov	r0, fp
  103f54:	614b      	str	r3, [r1, #20]
  103f56:	2a24      	cmp	r2, #36	; 0x24
  103f58:	d00b      	beq.n	103f72 <_realloc_r+0x382>
  103f5a:	465b      	mov	r3, fp
  103f5c:	3318      	adds	r3, #24
  103f5e:	3410      	adds	r4, #16
  103f60:	e742      	b.n	103de8 <_realloc_r+0x1f8>
  103f62:	6923      	ldr	r3, [r4, #16]
  103f64:	6183      	str	r3, [r0, #24]
  103f66:	6963      	ldr	r3, [r4, #20]
  103f68:	61c3      	str	r3, [r0, #28]
  103f6a:	465b      	mov	r3, fp
  103f6c:	3320      	adds	r3, #32
  103f6e:	3418      	adds	r4, #24
  103f70:	e6b0      	b.n	103cd4 <_realloc_r+0xe4>
  103f72:	6923      	ldr	r3, [r4, #16]
  103f74:	6183      	str	r3, [r0, #24]
  103f76:	6963      	ldr	r3, [r4, #20]
  103f78:	61c3      	str	r3, [r0, #28]
  103f7a:	465b      	mov	r3, fp
  103f7c:	3320      	adds	r3, #32
  103f7e:	3418      	adds	r4, #24
  103f80:	e732      	b.n	103de8 <_realloc_r+0x1f8>
  103f82:	1c38      	adds	r0, r7, #0
  103f84:	1c21      	adds	r1, r4, #0
  103f86:	f7ff fd8f 	bl	103aa8 <memmove>
  103f8a:	e7a0      	b.n	103ece <_realloc_r+0x2de>
  103f8c:	002004ac 	.word	0x002004ac
  103f90:	68a3      	ldr	r3, [r4, #8]
  103f92:	6103      	str	r3, [r0, #16]
  103f94:	68e3      	ldr	r3, [r4, #12]
  103f96:	6143      	str	r3, [r0, #20]
  103f98:	2a24      	cmp	r2, #36	; 0x24
  103f9a:	d003      	beq.n	103fa4 <_realloc_r+0x3b4>
  103f9c:	465b      	mov	r3, fp
  103f9e:	3318      	adds	r3, #24
  103fa0:	3410      	adds	r4, #16
  103fa2:	e78e      	b.n	103ec2 <_realloc_r+0x2d2>
  103fa4:	6923      	ldr	r3, [r4, #16]
  103fa6:	6183      	str	r3, [r0, #24]
  103fa8:	6963      	ldr	r3, [r4, #20]
  103faa:	61c3      	str	r3, [r0, #28]
  103fac:	465b      	mov	r3, fp
  103fae:	3320      	adds	r3, #32
  103fb0:	3418      	adds	r4, #24
  103fb2:	e786      	b.n	103ec2 <_realloc_r+0x2d2>

00103fb4 <__sread>:
  103fb4:	b538      	push	{r3, r4, r5, lr}
  103fb6:	1c0c      	adds	r4, r1, #0
  103fb8:	250e      	movs	r5, #14
  103fba:	5f49      	ldrsh	r1, [r1, r5]
  103fbc:	f7fc f8b6 	bl	10012c <_read_r>
  103fc0:	2800      	cmp	r0, #0
  103fc2:	db05      	blt.n	103fd0 <__sread+0x1c>
  103fc4:	6d23      	ldr	r3, [r4, #80]	; 0x50
  103fc6:	181b      	adds	r3, r3, r0
  103fc8:	6523      	str	r3, [r4, #80]	; 0x50
  103fca:	bc38      	pop	{r3, r4, r5}
  103fcc:	bc02      	pop	{r1}
  103fce:	4708      	bx	r1
  103fd0:	89a2      	ldrh	r2, [r4, #12]
  103fd2:	4b02      	ldr	r3, [pc, #8]	; (103fdc <__sread+0x28>)
  103fd4:	4013      	ands	r3, r2
  103fd6:	81a3      	strh	r3, [r4, #12]
  103fd8:	e7f7      	b.n	103fca <__sread+0x16>
  103fda:	46c0      	nop			; (mov r8, r8)
  103fdc:	ffffefff 	.word	0xffffefff

00103fe0 <__seofread>:
  103fe0:	2000      	movs	r0, #0
  103fe2:	4770      	bx	lr

00103fe4 <__swrite>:
  103fe4:	b5f8      	push	{r3, r4, r5, r6, r7, lr}
  103fe6:	1c1f      	adds	r7, r3, #0
  103fe8:	898b      	ldrh	r3, [r1, #12]
  103fea:	1c05      	adds	r5, r0, #0
  103fec:	1c0c      	adds	r4, r1, #0
  103fee:	1c16      	adds	r6, r2, #0
  103ff0:	05da      	lsls	r2, r3, #23
  103ff2:	d506      	bpl.n	104002 <__swrite+0x1e>
  103ff4:	230e      	movs	r3, #14
  103ff6:	5ec9      	ldrsh	r1, [r1, r3]
  103ff8:	2200      	movs	r2, #0
  103ffa:	2302      	movs	r3, #2
  103ffc:	f7fc f8b0 	bl	100160 <_lseek_r>
  104000:	89a3      	ldrh	r3, [r4, #12]
  104002:	4a06      	ldr	r2, [pc, #24]	; (10401c <__swrite+0x38>)
  104004:	4013      	ands	r3, r2
  104006:	81a3      	strh	r3, [r4, #12]
  104008:	220e      	movs	r2, #14
  10400a:	5ea1      	ldrsh	r1, [r4, r2]
  10400c:	1c28      	adds	r0, r5, #0
  10400e:	1c32      	adds	r2, r6, #0
  104010:	1c3b      	adds	r3, r7, #0
  104012:	f7fc f88d 	bl	100130 <_write_r>
  104016:	bcf8      	pop	{r3, r4, r5, r6, r7}
  104018:	bc02      	pop	{r1}
  10401a:	4708      	bx	r1
  10401c:	ffffefff 	.word	0xffffefff

00104020 <__sseek>:
  104020:	b538      	push	{r3, r4, r5, lr}
  104022:	1c0c      	adds	r4, r1, #0
  104024:	250e      	movs	r5, #14
  104026:	5f49      	ldrsh	r1, [r1, r5]
  104028:	f7fc f89a 	bl	100160 <_lseek_r>
  10402c:	89a2      	ldrh	r2, [r4, #12]
  10402e:	1c43      	adds	r3, r0, #1
  104030:	d007      	beq.n	104042 <__sseek+0x22>
  104032:	2380      	movs	r3, #128	; 0x80
  104034:	015b      	lsls	r3, r3, #5
  104036:	4313      	orrs	r3, r2
  104038:	81a3      	strh	r3, [r4, #12]
  10403a:	6520      	str	r0, [r4, #80]	; 0x50
  10403c:	bc38      	pop	{r3, r4, r5}
  10403e:	bc02      	pop	{r1}
  104040:	4708      	bx	r1
  104042:	4b02      	ldr	r3, [pc, #8]	; (10404c <__sseek+0x2c>)
  104044:	4013      	ands	r3, r2
  104046:	81a3      	strh	r3, [r4, #12]
  104048:	e7f8      	b.n	10403c <__sseek+0x1c>
  10404a:	46c0      	nop			; (mov r8, r8)
  10404c:	ffffefff 	.word	0xffffefff

00104050 <__sclose>:
  104050:	b508      	push	{r3, lr}
  104052:	230e      	movs	r3, #14
  104054:	5ec9      	ldrsh	r1, [r1, r3]
  104056:	f7fc f881 	bl	10015c <_close_r>
  10405a:	bc08      	pop	{r3}
  10405c:	bc02      	pop	{r1}
  10405e:	4708      	bx	r1

00104060 <strcmp>:
  104060:	7802      	ldrb	r2, [r0, #0]
  104062:	780b      	ldrb	r3, [r1, #0]
  104064:	3001      	adds	r0, #1
  104066:	3101      	adds	r1, #1
  104068:	2a00      	cmp	r2, #0
  10406a:	d001      	beq.n	104070 <strcmp+0x10>
  10406c:	429a      	cmp	r2, r3
  10406e:	d0f7      	beq.n	104060 <strcmp>
  104070:	1ad0      	subs	r0, r2, r3
  104072:	4770      	bx	lr

00104074 <strlen>:
  104074:	2300      	movs	r3, #0
  104076:	5cc2      	ldrb	r2, [r0, r3]
  104078:	3301      	adds	r3, #1
  10407a:	2a00      	cmp	r2, #0
  10407c:	d1fb      	bne.n	104076 <strlen+0x2>
  10407e:	1e58      	subs	r0, r3, #1
  104080:	4770      	bx	lr
  104082:	46c0      	nop			; (mov r8, r8)

00104084 <__swbuf_r>:
  104084:	b570      	push	{r4, r5, r6, lr}
  104086:	1c05      	adds	r5, r0, #0
  104088:	1c0e      	adds	r6, r1, #0
  10408a:	1c14      	adds	r4, r2, #0
  10408c:	2800      	cmp	r0, #0
  10408e:	d002      	beq.n	104096 <__swbuf_r+0x12>
  104090:	6b83      	ldr	r3, [r0, #56]	; 0x38
  104092:	2b00      	cmp	r3, #0
  104094:	d04d      	beq.n	104132 <__swbuf_r+0xae>
  104096:	69a3      	ldr	r3, [r4, #24]
  104098:	89a2      	ldrh	r2, [r4, #12]
  10409a:	60a3      	str	r3, [r4, #8]
  10409c:	1c13      	adds	r3, r2, #0
  10409e:	0711      	lsls	r1, r2, #28
  1040a0:	d53d      	bpl.n	10411e <__swbuf_r+0x9a>
  1040a2:	6921      	ldr	r1, [r4, #16]
  1040a4:	2900      	cmp	r1, #0
  1040a6:	d03a      	beq.n	10411e <__swbuf_r+0x9a>
  1040a8:	2080      	movs	r0, #128	; 0x80
  1040aa:	0180      	lsls	r0, r0, #6
  1040ac:	4203      	tst	r3, r0
  1040ae:	d022      	beq.n	1040f6 <__swbuf_r+0x72>
  1040b0:	6823      	ldr	r3, [r4, #0]
  1040b2:	6962      	ldr	r2, [r4, #20]
  1040b4:	1a59      	subs	r1, r3, r1
  1040b6:	4291      	cmp	r1, r2
  1040b8:	da28      	bge.n	10410c <__swbuf_r+0x88>
  1040ba:	3101      	adds	r1, #1
  1040bc:	68a2      	ldr	r2, [r4, #8]
  1040be:	0636      	lsls	r6, r6, #24
  1040c0:	0e36      	lsrs	r6, r6, #24
  1040c2:	3a01      	subs	r2, #1
  1040c4:	60a2      	str	r2, [r4, #8]
  1040c6:	701e      	strb	r6, [r3, #0]
  1040c8:	3301      	adds	r3, #1
  1040ca:	6023      	str	r3, [r4, #0]
  1040cc:	6963      	ldr	r3, [r4, #20]
  1040ce:	428b      	cmp	r3, r1
  1040d0:	d008      	beq.n	1040e4 <__swbuf_r+0x60>
  1040d2:	2e0a      	cmp	r6, #10
  1040d4:	d003      	beq.n	1040de <__swbuf_r+0x5a>
  1040d6:	1c30      	adds	r0, r6, #0
  1040d8:	bc70      	pop	{r4, r5, r6}
  1040da:	bc02      	pop	{r1}
  1040dc:	4708      	bx	r1
  1040de:	89a3      	ldrh	r3, [r4, #12]
  1040e0:	07da      	lsls	r2, r3, #31
  1040e2:	d5f8      	bpl.n	1040d6 <__swbuf_r+0x52>
  1040e4:	1c28      	adds	r0, r5, #0
  1040e6:	1c21      	adds	r1, r4, #0
  1040e8:	f7fe fb9c 	bl	102824 <_fflush_r>
  1040ec:	2800      	cmp	r0, #0
  1040ee:	d0f2      	beq.n	1040d6 <__swbuf_r+0x52>
  1040f0:	2601      	movs	r6, #1
  1040f2:	4276      	negs	r6, r6
  1040f4:	e7ef      	b.n	1040d6 <__swbuf_r+0x52>
  1040f6:	4302      	orrs	r2, r0
  1040f8:	81a2      	strh	r2, [r4, #12]
  1040fa:	4b13      	ldr	r3, [pc, #76]	; (104148 <__swbuf_r+0xc4>)
  1040fc:	6e62      	ldr	r2, [r4, #100]	; 0x64
  1040fe:	4013      	ands	r3, r2
  104100:	6663      	str	r3, [r4, #100]	; 0x64
  104102:	6962      	ldr	r2, [r4, #20]
  104104:	6823      	ldr	r3, [r4, #0]
  104106:	1a59      	subs	r1, r3, r1
  104108:	4291      	cmp	r1, r2
  10410a:	dbd6      	blt.n	1040ba <__swbuf_r+0x36>
  10410c:	1c28      	adds	r0, r5, #0
  10410e:	1c21      	adds	r1, r4, #0
  104110:	f7fe fb88 	bl	102824 <_fflush_r>
  104114:	2800      	cmp	r0, #0
  104116:	d1eb      	bne.n	1040f0 <__swbuf_r+0x6c>
  104118:	6823      	ldr	r3, [r4, #0]
  10411a:	2101      	movs	r1, #1
  10411c:	e7ce      	b.n	1040bc <__swbuf_r+0x38>
  10411e:	1c28      	adds	r0, r5, #0
  104120:	1c21      	adds	r1, r4, #0
  104122:	f7fe fb21 	bl	102768 <__swsetup_r>
  104126:	89a2      	ldrh	r2, [r4, #12]
  104128:	2800      	cmp	r0, #0
  10412a:	d105      	bne.n	104138 <__swbuf_r+0xb4>
  10412c:	1c13      	adds	r3, r2, #0
  10412e:	6921      	ldr	r1, [r4, #16]
  104130:	e7ba      	b.n	1040a8 <__swbuf_r+0x24>
  104132:	f7fe fc93 	bl	102a5c <__sinit>
  104136:	e7ae      	b.n	104096 <__swbuf_r+0x12>
  104138:	2340      	movs	r3, #64	; 0x40
  10413a:	4313      	orrs	r3, r2
  10413c:	81a3      	strh	r3, [r4, #12]
  10413e:	2601      	movs	r6, #1
  104140:	2309      	movs	r3, #9
  104142:	602b      	str	r3, [r5, #0]
  104144:	4276      	negs	r6, r6
  104146:	e7c6      	b.n	1040d6 <__swbuf_r+0x52>
  104148:	ffffdfff 	.word	0xffffdfff

0010414c <__swbuf>:
  10414c:	b508      	push	{r3, lr}
  10414e:	1c0a      	adds	r2, r1, #0
  104150:	4904      	ldr	r1, [pc, #16]	; (104164 <__swbuf+0x18>)
  104152:	1c03      	adds	r3, r0, #0
  104154:	6808      	ldr	r0, [r1, #0]
  104156:	1c19      	adds	r1, r3, #0
  104158:	f7ff ff94 	bl	104084 <__swbuf_r>
  10415c:	bc08      	pop	{r3}
  10415e:	bc02      	pop	{r1}
  104160:	4708      	bx	r1
  104162:	46c0      	nop			; (mov r8, r8)
  104164:	00200000 	.word	0x00200000

00104168 <_wcrtomb_r>:
  104168:	b5f0      	push	{r4, r5, r6, r7, lr}
  10416a:	4647      	mov	r7, r8
  10416c:	b480      	push	{r7}
  10416e:	1c1d      	adds	r5, r3, #0
  104170:	b086      	sub	sp, #24
  104172:	1c07      	adds	r7, r0, #0
  104174:	1c0c      	adds	r4, r1, #0
  104176:	4690      	mov	r8, r2
  104178:	4b11      	ldr	r3, [pc, #68]	; (1041c0 <_wcrtomb_r+0x58>)
  10417a:	2900      	cmp	r1, #0
  10417c:	d015      	beq.n	1041aa <_wcrtomb_r+0x42>
  10417e:	681e      	ldr	r6, [r3, #0]
  104180:	f7ff f8c4 	bl	10330c <__locale_charset>
  104184:	9500      	str	r5, [sp, #0]
  104186:	1c03      	adds	r3, r0, #0
  104188:	1c21      	adds	r1, r4, #0
  10418a:	1c38      	adds	r0, r7, #0
  10418c:	4642      	mov	r2, r8
  10418e:	f000 f850 	bl	104232 <wcrtomb+0x6e>
  104192:	1c43      	adds	r3, r0, #1
  104194:	d103      	bne.n	10419e <_wcrtomb_r+0x36>
  104196:	2300      	movs	r3, #0
  104198:	602b      	str	r3, [r5, #0]
  10419a:	238a      	movs	r3, #138	; 0x8a
  10419c:	603b      	str	r3, [r7, #0]
  10419e:	b006      	add	sp, #24
  1041a0:	bc04      	pop	{r2}
  1041a2:	4690      	mov	r8, r2
  1041a4:	bcf0      	pop	{r4, r5, r6, r7}
  1041a6:	bc02      	pop	{r1}
  1041a8:	4708      	bx	r1
  1041aa:	681c      	ldr	r4, [r3, #0]
  1041ac:	f7ff f8ae 	bl	10330c <__locale_charset>
  1041b0:	9500      	str	r5, [sp, #0]
  1041b2:	1c03      	adds	r3, r0, #0
  1041b4:	a903      	add	r1, sp, #12
  1041b6:	1c38      	adds	r0, r7, #0
  1041b8:	2200      	movs	r2, #0
  1041ba:	f000 f839 	bl	104230 <wcrtomb+0x6c>
  1041be:	e7e8      	b.n	104192 <_wcrtomb_r+0x2a>
  1041c0:	002008bc 	.word	0x002008bc

001041c4 <wcrtomb>:
  1041c4:	b5f0      	push	{r4, r5, r6, r7, lr}
  1041c6:	464f      	mov	r7, r9
  1041c8:	4646      	mov	r6, r8
  1041ca:	b4c0      	push	{r6, r7}
  1041cc:	4b16      	ldr	r3, [pc, #88]	; (104228 <wcrtomb+0x64>)
  1041ce:	b087      	sub	sp, #28
  1041d0:	1c07      	adds	r7, r0, #0
  1041d2:	4688      	mov	r8, r1
  1041d4:	1c15      	adds	r5, r2, #0
  1041d6:	681e      	ldr	r6, [r3, #0]
  1041d8:	4c14      	ldr	r4, [pc, #80]	; (10422c <wcrtomb+0x68>)
  1041da:	2800      	cmp	r0, #0
  1041dc:	d018      	beq.n	104210 <wcrtomb+0x4c>
  1041de:	6823      	ldr	r3, [r4, #0]
  1041e0:	4699      	mov	r9, r3
  1041e2:	f7ff f893 	bl	10330c <__locale_charset>
  1041e6:	9500      	str	r5, [sp, #0]
  1041e8:	1c03      	adds	r3, r0, #0
  1041ea:	1c39      	adds	r1, r7, #0
  1041ec:	4648      	mov	r0, r9
  1041ee:	4642      	mov	r2, r8
  1041f0:	f000 f81f 	bl	104232 <wcrtomb+0x6e>
  1041f4:	1c43      	adds	r3, r0, #1
  1041f6:	d104      	bne.n	104202 <wcrtomb+0x3e>
  1041f8:	2300      	movs	r3, #0
  1041fa:	602b      	str	r3, [r5, #0]
  1041fc:	6823      	ldr	r3, [r4, #0]
  1041fe:	228a      	movs	r2, #138	; 0x8a
  104200:	601a      	str	r2, [r3, #0]
  104202:	b007      	add	sp, #28
  104204:	bc0c      	pop	{r2, r3}
  104206:	4690      	mov	r8, r2
  104208:	4699      	mov	r9, r3
  10420a:	bcf0      	pop	{r4, r5, r6, r7}
  10420c:	bc02      	pop	{r1}
  10420e:	4708      	bx	r1
  104210:	6827      	ldr	r7, [r4, #0]
  104212:	f7ff f87b 	bl	10330c <__locale_charset>
  104216:	9500      	str	r5, [sp, #0]
  104218:	1c03      	adds	r3, r0, #0
  10421a:	a903      	add	r1, sp, #12
  10421c:	1c38      	adds	r0, r7, #0
  10421e:	2200      	movs	r2, #0
  104220:	f000 f807 	bl	104232 <wcrtomb+0x6e>
  104224:	e7e6      	b.n	1041f4 <wcrtomb+0x30>
  104226:	46c0      	nop			; (mov r8, r8)
  104228:	002008bc 	.word	0x002008bc
  10422c:	00200000 	.word	0x00200000
  104230:	4720      	bx	r4
  104232:	4730      	bx	r6

00104234 <__ascii_wctomb>:
  104234:	b500      	push	{lr}
  104236:	1c03      	adds	r3, r0, #0
  104238:	2000      	movs	r0, #0
  10423a:	2900      	cmp	r1, #0
  10423c:	d003      	beq.n	104246 <__ascii_wctomb+0x12>
  10423e:	2aff      	cmp	r2, #255	; 0xff
  104240:	d803      	bhi.n	10424a <__ascii_wctomb+0x16>
  104242:	700a      	strb	r2, [r1, #0]
  104244:	2001      	movs	r0, #1
  104246:	bc02      	pop	{r1}
  104248:	4708      	bx	r1
  10424a:	228a      	movs	r2, #138	; 0x8a
  10424c:	2001      	movs	r0, #1
  10424e:	601a      	str	r2, [r3, #0]
  104250:	4240      	negs	r0, r0
  104252:	e7f8      	b.n	104246 <__ascii_wctomb+0x12>

00104254 <_wctomb_r>:
  104254:	b5f0      	push	{r4, r5, r6, r7, lr}
  104256:	4647      	mov	r7, r8
  104258:	b480      	push	{r7}
  10425a:	1c1e      	adds	r6, r3, #0
  10425c:	4b0a      	ldr	r3, [pc, #40]	; (104288 <_wctomb_r+0x34>)
  10425e:	b082      	sub	sp, #8
  104260:	1c05      	adds	r5, r0, #0
  104262:	1c0f      	adds	r7, r1, #0
  104264:	4690      	mov	r8, r2
  104266:	681c      	ldr	r4, [r3, #0]
  104268:	f7ff f850 	bl	10330c <__locale_charset>
  10426c:	9600      	str	r6, [sp, #0]
  10426e:	1c03      	adds	r3, r0, #0
  104270:	1c39      	adds	r1, r7, #0
  104272:	1c28      	adds	r0, r5, #0
  104274:	4642      	mov	r2, r8
  104276:	f000 f809 	bl	10428c <_wctomb_r+0x38>
  10427a:	b002      	add	sp, #8
  10427c:	bc04      	pop	{r2}
  10427e:	4690      	mov	r8, r2
  104280:	bcf0      	pop	{r4, r5, r6, r7}
  104282:	bc02      	pop	{r1}
  104284:	4708      	bx	r1
  104286:	46c0      	nop			; (mov r8, r8)
  104288:	002008bc 	.word	0x002008bc
  10428c:	4720      	bx	r4
  10428e:	46c0      	nop			; (mov r8, r8)

00104290 <_fclose_r>:
  104290:	b570      	push	{r4, r5, r6, lr}
  104292:	1c05      	adds	r5, r0, #0
  104294:	1c0c      	adds	r4, r1, #0
  104296:	2600      	movs	r6, #0
  104298:	2900      	cmp	r1, #0
  10429a:	d033      	beq.n	104304 <_fclose_r+0x74>
  10429c:	f7fe fc50 	bl	102b40 <__sfp_lock_acquire>
  1042a0:	2d00      	cmp	r5, #0
  1042a2:	d002      	beq.n	1042aa <_fclose_r+0x1a>
  1042a4:	6bab      	ldr	r3, [r5, #56]	; 0x38
  1042a6:	2b00      	cmp	r3, #0
  1042a8:	d034      	beq.n	104314 <_fclose_r+0x84>
  1042aa:	220c      	movs	r2, #12
  1042ac:	5ea3      	ldrsh	r3, [r4, r2]
  1042ae:	2b00      	cmp	r3, #0
  1042b0:	d02c      	beq.n	10430c <_fclose_r+0x7c>
  1042b2:	1c28      	adds	r0, r5, #0
  1042b4:	1c21      	adds	r1, r4, #0
  1042b6:	f7fe fab5 	bl	102824 <_fflush_r>
  1042ba:	6ae3      	ldr	r3, [r4, #44]	; 0x2c
  1042bc:	1c06      	adds	r6, r0, #0
  1042be:	2b00      	cmp	r3, #0
  1042c0:	d005      	beq.n	1042ce <_fclose_r+0x3e>
  1042c2:	69e1      	ldr	r1, [r4, #28]
  1042c4:	1c28      	adds	r0, r5, #0
  1042c6:	f000 f841 	bl	10434c <fclose+0x18>
  1042ca:	2800      	cmp	r0, #0
  1042cc:	db2f      	blt.n	10432e <_fclose_r+0x9e>
  1042ce:	89a3      	ldrh	r3, [r4, #12]
  1042d0:	061a      	lsls	r2, r3, #24
  1042d2:	d427      	bmi.n	104324 <_fclose_r+0x94>
  1042d4:	6b21      	ldr	r1, [r4, #48]	; 0x30
  1042d6:	2900      	cmp	r1, #0
  1042d8:	d008      	beq.n	1042ec <_fclose_r+0x5c>
  1042da:	1c23      	adds	r3, r4, #0
  1042dc:	3340      	adds	r3, #64	; 0x40
  1042de:	4299      	cmp	r1, r3
  1042e0:	d002      	beq.n	1042e8 <_fclose_r+0x58>
  1042e2:	1c28      	adds	r0, r5, #0
  1042e4:	f7fe fd2a 	bl	102d3c <_free_r>
  1042e8:	2300      	movs	r3, #0
  1042ea:	6323      	str	r3, [r4, #48]	; 0x30
  1042ec:	6c61      	ldr	r1, [r4, #68]	; 0x44
  1042ee:	2900      	cmp	r1, #0
  1042f0:	d004      	beq.n	1042fc <_fclose_r+0x6c>
  1042f2:	1c28      	adds	r0, r5, #0
  1042f4:	f7fe fd22 	bl	102d3c <_free_r>
  1042f8:	2300      	movs	r3, #0
  1042fa:	6463      	str	r3, [r4, #68]	; 0x44
  1042fc:	2300      	movs	r3, #0
  1042fe:	81a3      	strh	r3, [r4, #12]
  104300:	f7fe fc20 	bl	102b44 <__sfp_lock_release>
  104304:	1c30      	adds	r0, r6, #0
  104306:	bc70      	pop	{r4, r5, r6}
  104308:	bc02      	pop	{r1}
  10430a:	4708      	bx	r1
  10430c:	f7fe fc1a 	bl	102b44 <__sfp_lock_release>
  104310:	2600      	movs	r6, #0
  104312:	e7f7      	b.n	104304 <_fclose_r+0x74>
  104314:	1c28      	adds	r0, r5, #0
  104316:	f7fe fba1 	bl	102a5c <__sinit>
  10431a:	220c      	movs	r2, #12
  10431c:	5ea3      	ldrsh	r3, [r4, r2]
  10431e:	2b00      	cmp	r3, #0
  104320:	d1c7      	bne.n	1042b2 <_fclose_r+0x22>
  104322:	e7f3      	b.n	10430c <_fclose_r+0x7c>
  104324:	6921      	ldr	r1, [r4, #16]
  104326:	1c28      	adds	r0, r5, #0
  104328:	f7fe fd08 	bl	102d3c <_free_r>
  10432c:	e7d2      	b.n	1042d4 <_fclose_r+0x44>
  10432e:	2601      	movs	r6, #1
  104330:	4276      	negs	r6, r6
  104332:	e7cc      	b.n	1042ce <_fclose_r+0x3e>

00104334 <fclose>:
  104334:	b508      	push	{r3, lr}
  104336:	4b04      	ldr	r3, [pc, #16]	; (104348 <fclose+0x14>)
  104338:	1c01      	adds	r1, r0, #0
  10433a:	6818      	ldr	r0, [r3, #0]
  10433c:	f7ff ffa8 	bl	104290 <_fclose_r>
  104340:	bc08      	pop	{r3}
  104342:	bc02      	pop	{r1}
  104344:	4708      	bx	r1
  104346:	46c0      	nop			; (mov r8, r8)
  104348:	00200000 	.word	0x00200000
  10434c:	4718      	bx	r3
  10434e:	46c0      	nop			; (mov r8, r8)

00104350 <_isatty_r>:
  104350:	b538      	push	{r3, r4, r5, lr}
  104352:	4c08      	ldr	r4, [pc, #32]	; (104374 <_isatty_r+0x24>)
  104354:	2300      	movs	r3, #0
  104356:	1c05      	adds	r5, r0, #0
  104358:	6023      	str	r3, [r4, #0]
  10435a:	1c08      	adds	r0, r1, #0
  10435c:	f7fb ff08 	bl	100170 <_isatty>
  104360:	1c43      	adds	r3, r0, #1
  104362:	d002      	beq.n	10436a <_isatty_r+0x1a>
  104364:	bc38      	pop	{r3, r4, r5}
  104366:	bc02      	pop	{r1}
  104368:	4708      	bx	r1
  10436a:	6823      	ldr	r3, [r4, #0]
  10436c:	2b00      	cmp	r3, #0
  10436e:	d0f9      	beq.n	104364 <_isatty_r+0x14>
  104370:	602b      	str	r3, [r5, #0]
  104372:	e7f7      	b.n	104364 <_isatty_r+0x14>
  104374:	00200a4c 	.word	0x00200a4c

00104378 <__aeabi_uidiv>:
  104378:	e2512001 	subs	r2, r1, #1
  10437c:	012fff1e 	bxeq	lr
  104380:	3a000036 	bcc	104460 <__aeabi_uidiv+0xe8>
  104384:	e1500001 	cmp	r0, r1
  104388:	9a000022 	bls	104418 <__aeabi_uidiv+0xa0>
  10438c:	e1110002 	tst	r1, r2
  104390:	0a000023 	beq	104424 <__aeabi_uidiv+0xac>
  104394:	e311020e 	tst	r1, #-536870912	; 0xe0000000
  104398:	01a01181 	lsleq	r1, r1, #3
  10439c:	03a03008 	moveq	r3, #8
  1043a0:	13a03001 	movne	r3, #1
  1043a4:	e3510201 	cmp	r1, #268435456	; 0x10000000
  1043a8:	31510000 	cmpcc	r1, r0
  1043ac:	31a01201 	lslcc	r1, r1, #4
  1043b0:	31a03203 	lslcc	r3, r3, #4
  1043b4:	3afffffa 	bcc	1043a4 <__aeabi_uidiv+0x2c>
  1043b8:	e3510102 	cmp	r1, #-2147483648	; 0x80000000
  1043bc:	31510000 	cmpcc	r1, r0
  1043c0:	31a01081 	lslcc	r1, r1, #1
  1043c4:	31a03083 	lslcc	r3, r3, #1
  1043c8:	3afffffa 	bcc	1043b8 <__aeabi_uidiv+0x40>
  1043cc:	e3a02000 	mov	r2, #0
  1043d0:	e1500001 	cmp	r0, r1
  1043d4:	20400001 	subcs	r0, r0, r1
  1043d8:	21822003 	orrcs	r2, r2, r3
  1043dc:	e15000a1 	cmp	r0, r1, lsr #1
  1043e0:	204000a1 	subcs	r0, r0, r1, lsr #1
  1043e4:	218220a3 	orrcs	r2, r2, r3, lsr #1
  1043e8:	e1500121 	cmp	r0, r1, lsr #2
  1043ec:	20400121 	subcs	r0, r0, r1, lsr #2
  1043f0:	21822123 	orrcs	r2, r2, r3, lsr #2
  1043f4:	e15001a1 	cmp	r0, r1, lsr #3
  1043f8:	204001a1 	subcs	r0, r0, r1, lsr #3
  1043fc:	218221a3 	orrcs	r2, r2, r3, lsr #3
  104400:	e3500000 	cmp	r0, #0
  104404:	11b03223 	lsrsne	r3, r3, #4
  104408:	11a01221 	lsrne	r1, r1, #4
  10440c:	1affffef 	bne	1043d0 <__aeabi_uidiv+0x58>
  104410:	e1a00002 	mov	r0, r2
  104414:	e12fff1e 	bx	lr
  104418:	03a00001 	moveq	r0, #1
  10441c:	13a00000 	movne	r0, #0
  104420:	e12fff1e 	bx	lr
  104424:	e3510801 	cmp	r1, #65536	; 0x10000
  104428:	21a01821 	lsrcs	r1, r1, #16
  10442c:	23a02010 	movcs	r2, #16
  104430:	33a02000 	movcc	r2, #0
  104434:	e3510c01 	cmp	r1, #256	; 0x100
  104438:	21a01421 	lsrcs	r1, r1, #8
  10443c:	22822008 	addcs	r2, r2, #8
  104440:	e3510010 	cmp	r1, #16
  104444:	21a01221 	lsrcs	r1, r1, #4
  104448:	22822004 	addcs	r2, r2, #4
  10444c:	e3510004 	cmp	r1, #4
  104450:	82822003 	addhi	r2, r2, #3
  104454:	908220a1 	addls	r2, r2, r1, lsr #1
  104458:	e1a00230 	lsr	r0, r0, r2
  10445c:	e12fff1e 	bx	lr
  104460:	e12fff1f 	bx	pc
  104464:	e1a00000 	nop			; (mov r0, r0)
  104468:	e3500000 	cmp	r0, #0
  10446c:	13e00000 	mvnne	r0, #0
  104470:	ea00000c 	b	1044a8 <____aeabi_idiv0_from_arm>

00104474 <__aeabi_uidivmod>:
  104474:	e3510000 	cmp	r1, #0
  104478:	0afffff8 	beq	104460 <__aeabi_uidiv+0xe8>
  10447c:	e92d4003 	push	{r0, r1, lr}
  104480:	ebffffbc 	bl	104378 <__aeabi_uidiv>
  104484:	e8bd4006 	pop	{r1, r2, lr}
  104488:	e0030092 	mul	r3, r2, r0
  10448c:	e0411003 	sub	r1, r1, r3
  104490:	e12fff1e 	bx	lr

00104494 <__aeabi_idiv0>:
  104494:	4770      	bx	lr
  104496:	46c0      	nop			; (mov r8, r8)

00104498 <____aeabi_uidivmod_from_thumb>:
  104498:	4778      	bx	pc
  10449a:	46c0      	nop			; (mov r8, r8)
  10449c:	eafffff4 	b	104474 <__aeabi_uidivmod>

001044a0 <____aeabi_uidiv_from_thumb>:
  1044a0:	4778      	bx	pc
  1044a2:	46c0      	nop			; (mov r8, r8)
  1044a4:	eaffffb3 	b	104378 <__aeabi_uidiv>

001044a8 <____aeabi_idiv0_from_arm>:
  1044a8:	e59fc000 	ldr	ip, [pc, #0]	; 1044b0 <____aeabi_idiv0_from_arm+0x8>
  1044ac:	e12fff1c 	bx	ip
  1044b0:	00104495 	.word	0x00104495
  1044b4:	00000000 	.word	0x00000000

001044b8 <_global_impure_ptr>:
  1044b8:	00200008 001020ae 00101e0e 00101e0e     .. .. ..........
  1044c8:	001020a4 00101e0e 00101e0e 00101e0e     . ..............
  1044d8:	00101e0e 00101e0e 00101e0e 00101ef4     ................
  1044e8:	001020a0 00101e0e 00101f0a 00102002     . ........... ..
  1044f8:	00101e0e 00102096 0010206c 0010206c     ..... ..l ..l ..
  104508:	0010206c 0010206c 0010206c 0010206c     l ..l ..l ..l ..
  104518:	0010206c 0010206c 0010206c 00101e0e     l ..l ..l ......
  104528:	00101e0e 00101e0e 00101e0e 00101e0e     ................
  104538:	00101e0e 00101e0e 00101e0e 00101e0e     ................
  104548:	00101e0e 0010237c 00101e0e 00101e0e     ....|#..........
  104558:	00101e0e 00101e0e 00101e0e 00101e0e     ................
  104568:	00101e0e 00101e0e 00101e0e 00101e0e     ................
  104578:	00101e5c 00101e0e 00101e0e 00101e0e     \...............
  104588:	00101e0e 00101e0e 00101e36 00101e0e     ........6.......
  104598:	00101e0e 00102370 00101e0e 00101e0e     ....p#..........
  1045a8:	00101e0e 00101e0e 00101e0e 00101e0e     ................
  1045b8:	00101e0e 00101e0e 00101e0e 00101e0e     ................
  1045c8:	001020f6 001020ca 00101e0e 00101e0e     . ... ..........
  1045d8:	00101e0e 001020c0 001020ca 00101e0e     ..... ... ......
  1045e8:	00101e0e 001020b8 00101e0e 00101fda     ..... ..........
  1045f8:	00101e64 00101f1c 00101f14 00101e0e     d...............
  104608:	00101f48 00101e0e 00101e3e 00101e0e     H.......>.......
  104618:	00101e0e 00101f90                       ........

00104620 <blanks.3885>:
  104620:	20202020 20202020 20202020 20202020                     

00104630 <zeroes.3886>:
  104630:	30303030 30303030 30303030 30303030     0000000000000000
  104640:	001003be 00100408 0010039a 0010043e     ............>...
  104650:	0010039a 00100460 001004c0 0010039a     ....`...........
  104660:	00100480 001004ac 20647453 00000000     ........Std ....
  104670:	73654467 00002063 20766544 00000000     gDesc ..Dev ....
  104680:	20676643 00000000 25727453 00002064     Cfg ....Str%d ..
  104690:	53203a57 525f4454 65757165 61487473     W: STD_RequestHa
  1046a0:	656c646e 55203a72 6f6e6b6e 47206e77     ndler: Unknown G
  1046b0:	65447465 69726373 726f7470 30203d20     etDescriptor = 0
  1046c0:	32302578 000d0a58 64644173 00002072     x%02X...sAddr ..
  1046d0:	67664373 00000020 67664367 00000020     sCfg ...gCfg ...
  1046e0:	61654663 00002074 20746c48 00000000     cFeat ..Hlt ....
  1046f0:	61576d52 0000206b 20617453 00000000     RmWak ..Sta ....
  104700:	61745367 00000020 20747045 00000000     gSta ...Ept ....
  104710:	53203a57 525f4454 65757165 61487473     W: STD_RequestHa
  104720:	656c646e 55203a72 7075736e 74726f70     ndler: Unsupport
  104730:	47206465 74537465 73757461 30203d20     ed GetStatus = 0
  104740:	32302578 000d0a58 61654673 00002074     x%02X...sFeat ..
  104750:	53203a57 525f4454 65757165 61487473     W: STD_RequestHa
  104760:	656c646e 55203a72 7075736e 74726f70     ndler: Unsupport
  104770:	53206465 65467465 72757461 78303d65     ed SetFeature=0x
  104780:	58343025 00000d0a 53203a57 525f4454     %04X....W: STD_R
  104790:	65757165 61487473 656c646e 55203a72     equestHandler: U
  1047a0:	7075736e 74726f70 72206465 65757165     nsupported reque
  1047b0:	203a7473 30257830 0d0a5832 00000000     st: 0x%02X......
  1047c0:	41746553 28726464 20296425 00000000     SetAddr(%d) ....
  1047d0:	6f6d6552 57206574 55656b61 00002070     Remote WakeUp ..
  1047e0:	64616552 25286425 00202964 74697257     Read%d(%d) .Writ
  1047f0:	28642565 20296425 00000000 74696e49     e%d(%d) ....Init
  104800:	0d0a2928 00000000 55203a57 535f5044     ()......W: UDP_S
  104810:	6c6c6174 6e45203a 696f7064 6425746e     tall: Endpoint%d
  104820:	636f6c20 0a64656b 0000000d 6c617453      locked.....Stal
  104830:	2064256c 00000000 20546f45 00000000     l%d ....EoT ....
  104840:	43746553 29286766 00000020 61747441     SetCfg() ...Atta
  104850:	00286863 45676643 64257470 00000020     ch(.CfgEpt%d ...
  104860:	61686e55 6425746c 00000020 746c6148     Unhalt%d ...Halt
  104870:	00206425 20726c48 00000000 20464f53     %d .Hlr ....SOF 
  104880:	00000000 70737553 00000020 20736552     ....Susp ...Res 
  104890:	00000000 52426f45 00207365 25747045     ....EoBRes .Ept%
  1048a0:	00002064 00207257 00206452 206b6341     d ..Wr .Rd .Ack 
  1048b0:	00000000 63736944 00000020 206b614e     ....Disc ...Nak 
  1048c0:	00000000 20707453 00000000 202d2020     ....Stp ....  - 
  1048d0:	00000000                                ....

001048d4 <sDefaultDriver>:
  1048d4:	fffb0000 00000000 00000000 0000000b     ................
  1048e4:	00000080 001048ec                       .....H..

001048ec <sUDPMethods>:
  1048ec:	001008dd 001007fd 00100789 0010096d     ............m...
  1048fc:	00100d0d 00100741 00100bf1 00100aad     ....A...........
  10490c:	001006e9 00100a5d 00100e15 001008cd     ....]...........
  10491c:	001008b1                                ....

00104920 <pManufacturer>:
  104920:	0041030c 004d0054 004c0045              ..A.T.M.E.L.

0010492c <sLanguageID>:
  10492c:	04090304                                ....

00104930 <sDevice>:
  104930:	02000112 08000000 620103eb 02010001     ...........b....
  104940:	00000103 5277654e 00207165 6f706552     ....NewReq .Repo
  104950:	00207472 20444948 00000000 6c644967     rt .HID ....gIdl
  104960:	00002065 6c644973 64252865 00002029     e ..sIdle(%d) ..
  104970:	70655267 2074726f 00000000 00206e49     gReport ....In .
  104980:	2074754f 00000000 70655273 2074726f     Out ....sReport 
  104990:	00000000 4b203a57 525f4442 65757165     ....W: KBD_Reque
  1049a0:	61487473 656c646e 55203a72 6f6e6b6e     stHandler: Unkno
  1049b0:	72206e77 65757165 30207473 32302578     wn request 0x%02
  1049c0:	000d0a58 69707845 0a646572 0000000d     X...Expired.....
  1049d0:	614d0d0a 48206e69 6b204449 6f627965     ..Main HID keybo
  1049e0:	0a647261 0000000d 6e6e6f43 69746365     ard.....Connecti
  1049f0:	2e20676e 00202e2e 0d0a4b4f 00000000     ng ... .OK......

00104a00 <pSerialNumber>:
  104a00:	0030031a 00320031 00340033 00360035     ..0.1.2.3.4.5.6.
  104a10:	00380037 00410039 00000046              7.8.9.A.F...

00104a1c <pProduct>:
  104a1c:	00410330 004d0054 004c0045 00410020     0.A.T.M.E.L. .A.
  104a2c:	00390054 00200031 00490048 00200044     T.9.1. .H.I.D. .
  104a3c:	0045004b 00420059 0041004f 00440052     K.E.Y.B.O.A.R.D.

00104a4c <sConfiguration>:
  104a4c:	00290209 c0000101 00040932 00030200     ..).....2.......
  104a5c:	21090000 01000111 07003922 04038105     ...!...."9......
  104a6c:	05070a00 00010382 0000000a              ............

00104a78 <sDescriptors>:
  104a78:	00104930 00104a4c 002008c4 002008d4     0I..LJ.... ... .

00104a88 <pReport>:
  104a88:	06090105 017501a1 07050895 e729e019     ......u.......).
  104a98:	01250015 03950281 00150875 07056525     ..%.....u...%e..
  104aa8:	65290019 05950081 08050175 05290119     ..)e....u.....).
  104ab8:	01950291 01910375 000000c0              ....u.......

00104ac4 <pKeyCodes>:
  104ac4:	02532604                                .&S.

00104ac8 <pKeyPios>:
  104ac8:	00080000 00100000 00008000 00004000     .............@..

00104ad8 <sCallbacks>:
  104ad8:	0010189d 00000000 001017d5 001017e9     ................
  104ae8:	00101889 00000000                       ........

00104af0 <sUsb>:
  104af0:	001048d4 002008dc 00000003 00104ad8     .H.... ......J..
  104b00:	00200a40 00200a48 00000043 33323130     @. .H. .C...0123
  104b10:	37363534 42413938 46454443 00000000     456789ABCDEF....
  104b20:	33323130 37363534 62613938 66656463     0123456789abcdef
  104b30:	00000000 6c756e28 0000296c 49534f50     ....(null)..POSI
  104b40:	00000058 0000002e                       X.......
